

Microchip MPLAB XC8 Assembler V2.40 build 20220703182018 
                                                                                               Fri Mar 31 18:27:51 2023

Microchip MPLAB XC8 C Compiler v2.40 (Free license) build 20220703182018 Og1 
     1                           	processor	16F887
     2                           	pagewidth 120
     3                           	opt	flic
     4                           	psect	cinit,global,class=CODE,merge=1,delta=2
     5                           	psect	bssBANK1,global,class=BANK1,space=1,delta=1,noexec
     6                           	psect	cstackBANK1,global,class=BANK1,space=1,delta=1,noexec
     7                           	psect	cstackCOMMON,global,class=COMMON,space=1,delta=1,noexec
     8                           	psect	cstackBANK0,global,class=BANK0,space=1,delta=1,noexec
     9                           	psect	maintext,global,class=CODE,split=1,delta=2
    10                           	psect	text1,local,class=CODE,merge=1,delta=2
    11                           	psect	text2,local,class=CODE,merge=1,delta=2
    12                           	psect	text3,local,class=CODE,merge=1,delta=2
    13                           	psect	text4,local,class=CODE,merge=1,delta=2
    14                           	psect	intentry,global,class=CODE,delta=2
    15                           	psect	text5,local,class=CODE,merge=1,delta=2
    16                           	psect	text6,local,class=CODE,merge=1,delta=2,group=1
    17                           	psect	text7,local,class=CODE,merge=1,delta=2,group=1
    18                           	psect	text8,local,class=CODE,merge=1,delta=2,group=1
    19                           	psect	text9,local,class=CODE,merge=1,delta=2,group=1
    20                           	psect	text10,local,class=CODE,merge=1,delta=2,group=1
    21                           	psect	text11,local,class=CODE,merge=1,delta=2,group=1
    22                           	psect	idloc,global,abs,ovrld,class=IDLOC,space=5,delta=2,noexec
    23                           	psect	config,global,abs,ovrld,class=CONFIG,space=4,delta=2,noexec
    24                           	dabs	1,0x7E,2
    25     0000                     
    26                           ; Version 2.40
    27                           ; Generated 17/11/2021 GMT
    28                           ; 
    29                           ; Copyright © 2021, Microchip Technology Inc. and its subsidiaries ("Microchip")
    30                           ; All rights reserved.
    31                           ; 
    32                           ; This software is developed by Microchip Technology Inc. and its subsidiaries ("Microch
      +                          ip").
    33                           ; 
    34                           ; Redistribution and use in source and binary forms, with or without modification, are
    35                           ; permitted provided that the following conditions are met:
    36                           ; 
    37                           ;     1. Redistributions of source code must retain the above copyright notice, this lis
      +                          t of
    38                           ;        conditions and the following disclaimer.
    39                           ; 
    40                           ;     2. Redistributions in binary form must reproduce the above copyright notice, this 
      +                          list
    41                           ;        of conditions and the following disclaimer in the documentation and/or other
    42                           ;        materials provided with the distribution. Publication is not required when
    43                           ;        this file is used in an embedded application.
    44                           ; 
    45                           ;     3. Microchip's name may not be used to endorse or promote products derived from th
      +                          is
    46                           ;        software without specific prior written permission.
    47                           ; 
    48                           ; THIS SOFTWARE IS PROVIDED BY MICROCHIP "AS IS" AND ANY EXPRESS OR IMPLIED WARRANTIES,
    49                           ; INCLUDING, BUT NOT LIMITED TO, THE IMPLIED WARRANTIES OF MERCHANTABILITY AND FITNESS F
      +                          OR
    50                           ; PURPOSE ARE DISCLAIMED.  IN NO EVENT SHALL MICROCHIP BE LIABLE FOR ANY DIRECT, INDIREC
      +                          T,
    51                           ; INCIDENTAL, SPECIAL, EXEMPLARY, OR CONSEQUENTIAL DAMAGES (INCLUDING BUT NOT LIMITED TO
    52                           ; PROCUREMENT OF SUBSTITUTE GOODS OR SERVICES; LOSS OF USE, DATA OR PROFITS; OR BUSINESS
    53                           ; INTERRUPTION) HOWSOEVER CAUSED AND ON ANY THEORY OF LIABILITY, WHETHER IN CONTRACT, ST
      +                          RICT
    54                           ; LIABILITY, OR TORT (INCLUDING NEGLIGENCE OR OTHERWISE) ARISING IN ANY WAY OUT OF THE U
      +                          SE OF
    55                           ; THIS SOFTWARE, EVEN IF ADVISED OF THE POSSIBILITY OF SUCH DAMAGE.
    56                           ; 
    57                           ; 
    58                           ; Code-generator required, PIC16F887 Definitions
    59                           ; 
    60                           ; SFR Addresses
    61     0000                     	;# 
    62     0001                     	;# 
    63     0002                     	;# 
    64     0003                     	;# 
    65     0004                     	;# 
    66     0005                     	;# 
    67     0006                     	;# 
    68     0007                     	;# 
    69     0008                     	;# 
    70     0009                     	;# 
    71     000A                     	;# 
    72     000B                     	;# 
    73     000C                     	;# 
    74     000D                     	;# 
    75     000E                     	;# 
    76     000E                     	;# 
    77     000F                     	;# 
    78     0010                     	;# 
    79     0011                     	;# 
    80     0012                     	;# 
    81     0013                     	;# 
    82     0014                     	;# 
    83     0015                     	;# 
    84     0015                     	;# 
    85     0016                     	;# 
    86     0017                     	;# 
    87     0018                     	;# 
    88     0019                     	;# 
    89     001A                     	;# 
    90     001B                     	;# 
    91     001B                     	;# 
    92     001C                     	;# 
    93     001D                     	;# 
    94     001E                     	;# 
    95     001F                     	;# 
    96     0081                     	;# 
    97     0085                     	;# 
    98     0086                     	;# 
    99     0087                     	;# 
   100     0088                     	;# 
   101     0089                     	;# 
   102     008C                     	;# 
   103     008D                     	;# 
   104     008E                     	;# 
   105     008F                     	;# 
   106     0090                     	;# 
   107     0091                     	;# 
   108     0092                     	;# 
   109     0093                     	;# 
   110     0093                     	;# 
   111     0093                     	;# 
   112     0094                     	;# 
   113     0095                     	;# 
   114     0096                     	;# 
   115     0097                     	;# 
   116     0098                     	;# 
   117     0099                     	;# 
   118     009A                     	;# 
   119     009B                     	;# 
   120     009C                     	;# 
   121     009D                     	;# 
   122     009E                     	;# 
   123     009F                     	;# 
   124     0105                     	;# 
   125     0107                     	;# 
   126     0108                     	;# 
   127     0109                     	;# 
   128     010C                     	;# 
   129     010C                     	;# 
   130     010D                     	;# 
   131     010E                     	;# 
   132     010F                     	;# 
   133     0185                     	;# 
   134     0187                     	;# 
   135     0188                     	;# 
   136     0189                     	;# 
   137     018C                     	;# 
   138     018D                     	;# 
   139     0000                     	;# 
   140     0001                     	;# 
   141     0002                     	;# 
   142     0003                     	;# 
   143     0004                     	;# 
   144     0005                     	;# 
   145     0006                     	;# 
   146     0007                     	;# 
   147     0008                     	;# 
   148     0009                     	;# 
   149     000A                     	;# 
   150     000B                     	;# 
   151     000C                     	;# 
   152     000D                     	;# 
   153     000E                     	;# 
   154     000E                     	;# 
   155     000F                     	;# 
   156     0010                     	;# 
   157     0011                     	;# 
   158     0012                     	;# 
   159     0013                     	;# 
   160     0014                     	;# 
   161     0015                     	;# 
   162     0015                     	;# 
   163     0016                     	;# 
   164     0017                     	;# 
   165     0018                     	;# 
   166     0019                     	;# 
   167     001A                     	;# 
   168     001B                     	;# 
   169     001B                     	;# 
   170     001C                     	;# 
   171     001D                     	;# 
   172     001E                     	;# 
   173     001F                     	;# 
   174     0081                     	;# 
   175     0085                     	;# 
   176     0086                     	;# 
   177     0087                     	;# 
   178     0088                     	;# 
   179     0089                     	;# 
   180     008C                     	;# 
   181     008D                     	;# 
   182     008E                     	;# 
   183     008F                     	;# 
   184     0090                     	;# 
   185     0091                     	;# 
   186     0092                     	;# 
   187     0093                     	;# 
   188     0093                     	;# 
   189     0093                     	;# 
   190     0094                     	;# 
   191     0095                     	;# 
   192     0096                     	;# 
   193     0097                     	;# 
   194     0098                     	;# 
   195     0099                     	;# 
   196     009A                     	;# 
   197     009B                     	;# 
   198     009C                     	;# 
   199     009D                     	;# 
   200     009E                     	;# 
   201     009F                     	;# 
   202     0105                     	;# 
   203     0107                     	;# 
   204     0108                     	;# 
   205     0109                     	;# 
   206     010C                     	;# 
   207     010C                     	;# 
   208     010D                     	;# 
   209     010E                     	;# 
   210     010F                     	;# 
   211     0185                     	;# 
   212     0187                     	;# 
   213     0188                     	;# 
   214     0189                     	;# 
   215     018C                     	;# 
   216     018D                     	;# 
   217     0012                     _T2CONbits	set	18
   218     001D                     _CCP2CON	set	29
   219     0017                     _CCP1CON	set	23
   220     000B                     _INTCONbits	set	11
   221     0009                     _PORTE	set	9
   222     0008                     _PORTD	set	8
   223     0007                     _PORTC	set	7
   224     0006                     _PORTB	set	6
   225     0005                     _PORTA	set	5
   226     001D                     _CCP2CONbits	set	29
   227     001B                     _CCPR2L	set	27
   228     0017                     _CCP1CONbits	set	23
   229     0015                     _CCPR1L	set	21
   230     001E                     _ADRESH	set	30
   231     001F                     _ADCON0bits	set	31
   232     000C                     _PIR1bits	set	12
   233     009F                     _ADCON1bits	set	159
   234     0092                     _PR2	set	146
   235     0087                     _TRISCbits	set	135
   236     008C                     _PIE1bits	set	140
   237     008F                     _OSCCONbits	set	143
   238     0087                     _TRISC	set	135
   239     0189                     _ANSELH	set	393
   240     0188                     _ANSELbits	set	392
   241                           
   242                           	psect	cinit
   243     0013                     start_initialization:	
   244                           ; #config settings
   245                           
   246     0013                     __initialization:
   247                           
   248                           ; Clear objects allocated to BANK1
   249     0013  1683               	bsf	3,5	;RP0=1, select bank1
   250     0014  1303               	bcf	3,6	;RP1=0, select bank1
   251     0015  01B1               	clrf	__pbssBANK1& (0+127)
   252     0016  01B2               	clrf	(__pbssBANK1+1)& (0+127)
   253     0017  01B3               	clrf	(__pbssBANK1+2)& (0+127)
   254     0018  01B4               	clrf	(__pbssBANK1+3)& (0+127)
   255     0019                     end_of_initialization:	
   256                           ;End of C runtime variable initialization code
   257                           
   258     0019                     __end_of__initialization:
   259     0019  0183               	clrf	3
   260     001A  120A  118A  2F8D   	ljmp	_main	;jump to C main() function
   261                           
   262                           	psect	bssBANK1
   263     00B1                     __pbssBANK1:
   264     00B1                     _CCPR2VAR:
   265     00B1                     	ds	2
   266     00B3                     _CCPR1VAR:
   267     00B3                     	ds	2
   268                           
   269                           	psect	cstackBANK1
   270     00A0                     __pcstackBANK1:
   271     00A0                     ___fltol@sign1:
   272                           
   273                           ; 1 bytes @ 0x0
   274     00A0                     	ds	1
   275     00A1                     ___fltol@exp1:
   276                           
   277                           ; 1 bytes @ 0x1
   278     00A1                     	ds	1
   279     00A2                     ?_map:
   280     00A2                     map@IN_MIN:	
   281                           ; 2 bytes @ 0x2
   282                           
   283                           
   284                           ; 1 bytes @ 0x2
   285     00A2                     	ds	1
   286     00A3                     map@IN_MAX:
   287                           
   288                           ; 1 bytes @ 0x3
   289     00A3                     	ds	1
   290     00A4                     map@OUT_MIN:
   291                           
   292                           ; 2 bytes @ 0x4
   293     00A4                     	ds	2
   294     00A6                     map@OUT_MAX:
   295                           
   296                           ; 2 bytes @ 0x6
   297     00A6                     	ds	2
   298     00A8                     map@INPUT:
   299                           
   300                           ; 1 bytes @ 0x8
   301     00A8                     	ds	1
   302     00A9                     ??_isr:
   303                           
   304                           ; 1 bytes @ 0x9
   305     00A9                     	ds	5
   306     00AE                     ??_setup:
   307     00AE                     ??_setupPWM:	
   308                           ; 1 bytes @ 0xE
   309                           
   310     00AE                     ??_setupADC:	
   311                           ; 1 bytes @ 0xE
   312                           
   313                           
   314                           ; 1 bytes @ 0xE
   315     00AE                     	ds	1
   316     00AF                     ??_main:
   317                           
   318                           ; 1 bytes @ 0xF
   319     00AF                     	ds	2
   320                           
   321                           	psect	cstackCOMMON
   322     0070                     __pcstackCOMMON:
   323     0070                     ?_setup:
   324     0070                     ?_setupPWM:	
   325                           ; 1 bytes @ 0x0
   326                           
   327     0070                     ?_setupADC:	
   328                           ; 1 bytes @ 0x0
   329                           
   330     0070                     ?_isr:	
   331                           ; 1 bytes @ 0x0
   332                           
   333     0070                     ?_main:	
   334                           ; 1 bytes @ 0x0
   335                           
   336     0070                     ?__Umul8_16:	
   337                           ; 1 bytes @ 0x0
   338                           
   339     0070                     ?___xxtofl:	
   340                           ; 2 bytes @ 0x0
   341                           
   342     0070                     __Umul8_16@multiplicand:	
   343                           ; 4 bytes @ 0x0
   344                           
   345     0070                     ___xxtofl@val:	
   346                           ; 1 bytes @ 0x0
   347                           
   348                           
   349                           ; 4 bytes @ 0x0
   350     0070                     	ds	2
   351     0072                     ??__Umul8_16:
   352                           
   353                           ; 1 bytes @ 0x2
   354     0072                     	ds	2
   355     0074                     ??___xxtofl:
   356     0074                     __Umul8_16@product:	
   357                           ; 1 bytes @ 0x4
   358                           
   359                           
   360                           ; 2 bytes @ 0x4
   361     0074                     	ds	2
   362     0076                     __Umul8_16@word_mpld:
   363                           
   364                           ; 2 bytes @ 0x6
   365     0076                     	ds	2
   366     0078                     __Umul8_16@multiplier:
   367     0078                     ___xxtofl@sign:	
   368                           ; 1 bytes @ 0x8
   369                           
   370                           
   371                           ; 1 bytes @ 0x8
   372     0078                     	ds	1
   373     0079                     ___xxtofl@exp:
   374                           
   375                           ; 1 bytes @ 0x9
   376     0079                     	ds	1
   377     007A                     ___xxtofl@arg:
   378                           
   379                           ; 4 bytes @ 0xA
   380     007A                     	ds	4
   381     007E                     ??_map:
   382                           
   383                           	psect	cstackBANK0
   384     0020                     __pcstackBANK0:	
   385                           ; 1 bytes @ 0xE
   386                           
   387     0020                     ?___fldiv:
   388     0020                     ___fldiv@a:	
   389                           ; 4 bytes @ 0x0
   390                           
   391                           
   392                           ; 4 bytes @ 0x0
   393     0020                     	ds	4
   394     0024                     ___fldiv@b:
   395                           
   396                           ; 4 bytes @ 0x4
   397     0024                     	ds	4
   398     0028                     ??___fldiv:
   399                           
   400                           ; 1 bytes @ 0x8
   401     0028                     	ds	5
   402     002D                     ___fldiv@rem:
   403                           
   404                           ; 4 bytes @ 0xD
   405     002D                     	ds	4
   406     0031                     ___fldiv@sign:
   407                           
   408                           ; 1 bytes @ 0x11
   409     0031                     	ds	1
   410     0032                     ___fldiv@new_exp:
   411                           
   412                           ; 2 bytes @ 0x12
   413     0032                     	ds	2
   414     0034                     ___fldiv@grs:
   415                           
   416                           ; 4 bytes @ 0x14
   417     0034                     	ds	4
   418     0038                     ___fldiv@bexp:
   419                           
   420                           ; 1 bytes @ 0x18
   421     0038                     	ds	1
   422     0039                     ___fldiv@aexp:
   423                           
   424                           ; 1 bytes @ 0x19
   425     0039                     	ds	1
   426     003A                     ?___flmul:
   427     003A                     ___flmul@b:	
   428                           ; 4 bytes @ 0x1A
   429                           
   430                           
   431                           ; 4 bytes @ 0x1A
   432     003A                     	ds	4
   433     003E                     ___flmul@a:
   434                           
   435                           ; 4 bytes @ 0x1E
   436     003E                     	ds	4
   437     0042                     ??___flmul:
   438                           
   439                           ; 1 bytes @ 0x22
   440     0042                     	ds	5
   441     0047                     ___flmul@sign:
   442                           
   443                           ; 1 bytes @ 0x27
   444     0047                     	ds	1
   445     0048                     ___flmul@grs:
   446                           
   447                           ; 4 bytes @ 0x28
   448     0048                     	ds	4
   449     004C                     ___flmul@aexp:
   450                           
   451                           ; 1 bytes @ 0x2C
   452     004C                     	ds	1
   453     004D                     ___flmul@bexp:
   454                           
   455                           ; 1 bytes @ 0x2D
   456     004D                     	ds	1
   457     004E                     ___flmul@prod:
   458                           
   459                           ; 4 bytes @ 0x2E
   460     004E                     	ds	4
   461     0052                     ___flmul@temp:
   462                           
   463                           ; 2 bytes @ 0x32
   464     0052                     	ds	2
   465     0054                     ?___fladd:
   466     0054                     ___fladd@b:	
   467                           ; 4 bytes @ 0x34
   468                           
   469                           
   470                           ; 4 bytes @ 0x34
   471     0054                     	ds	4
   472     0058                     ___fladd@a:
   473                           
   474                           ; 4 bytes @ 0x38
   475     0058                     	ds	4
   476     005C                     ??___fladd:
   477                           
   478                           ; 1 bytes @ 0x3C
   479     005C                     	ds	8
   480     0064                     ___fladd@signs:
   481                           
   482                           ; 1 bytes @ 0x44
   483     0064                     	ds	1
   484     0065                     ___fladd@aexp:
   485                           
   486                           ; 1 bytes @ 0x45
   487     0065                     	ds	1
   488     0066                     ___fladd@bexp:
   489                           
   490                           ; 1 bytes @ 0x46
   491     0066                     	ds	1
   492     0067                     ___fladd@grs:
   493                           
   494                           ; 1 bytes @ 0x47
   495     0067                     	ds	1
   496     0068                     ?___fltol:
   497     0068                     ___fltol@f1:	
   498                           ; 4 bytes @ 0x48
   499                           
   500                           
   501                           ; 4 bytes @ 0x48
   502     0068                     	ds	4
   503     006C                     ??___fltol:
   504                           
   505                           ; 1 bytes @ 0x4C
   506     006C                     	ds	4
   507                           
   508                           	psect	maintext
   509     078D                     __pmaintext:	
   510 ;;
   511 ;;Main: autosize = 0, tempsize = 2, incstack = 0, save=0
   512 ;;
   513 ;; *************** function _main *****************
   514 ;; Defined at:
   515 ;;		line 69 in file "newmain.c"
   516 ;; Parameters:    Size  Location     Type
   517 ;;		None
   518 ;; Auto vars:     Size  Location     Type
   519 ;;		None
   520 ;; Return value:  Size  Location     Type
   521 ;;                  1    wreg      void 
   522 ;; Registers used:
   523 ;;		wreg, status,2, status,0, pclath, cstack
   524 ;; Tracked objects:
   525 ;;		On entry : B00/0
   526 ;;		On exit  : 0/0
   527 ;;		Unchanged: 0/0
   528 ;; Data sizes:     COMMON   BANK0   BANK1   BANK3   BANK2
   529 ;;      Params:         0       0       0       0       0
   530 ;;      Locals:         0       0       0       0       0
   531 ;;      Temps:          0       0       2       0       0
   532 ;;      Totals:         0       0       2       0       0
   533 ;;Total ram usage:        2 bytes
   534 ;; Hardware stack levels required when called: 5
   535 ;; This function calls:
   536 ;;		_setup
   537 ;;		_setupADC
   538 ;;		_setupPWM
   539 ;; This function is called by:
   540 ;;		Startup code after reset
   541 ;; This function uses a non-reentrant model
   542 ;;
   543                           
   544     078D                     _main:	
   545                           ;psect for function _main
   546                           
   547     078D                     l2012:	
   548                           ;incstack = 0
   549                           ; Regs used in _main: [wreg+status,2+status,0+pclath+cstack]
   550                           
   551                           
   552                           ;newmain.c: 71:     setup ();
   553     078D  120A  158A  24EE  120A  118A  	fcall	_setup
   554                           
   555                           ;newmain.c: 72:     setupPWM ();
   556     0792  120A  158A  2532  120A  118A  	fcall	_setupPWM
   557                           
   558                           ;newmain.c: 73:     setupADC ();
   559     0797  120A  118A  27DC  120A  118A  	fcall	_setupADC
   560     079C                     l2014:
   561                           
   562                           ;newmain.c: 75:         _delay((unsigned long)((10)*(4000000/4000.0)));
   563     079C  300D               	movlw	13
   564     079D  1683               	bsf	3,5	;RP0=1, select bank1
   565     079E  1303               	bcf	3,6	;RP1=0, select bank1
   566     079F  00B0               	movwf	(??_main^(0+128)+1)
   567     07A0  30FB               	movlw	251
   568     07A1  00AF               	movwf	??_main^(0+128)
   569     07A2                     u2937:
   570     07A2  0BAF               	decfsz	??_main^(0+128),f
   571     07A3  2FA2               	goto	u2937
   572     07A4  0BB0               	decfsz	(??_main^(0+128)+1),f
   573     07A5  2FA2               	goto	u2937
   574     07A6                     l2016:
   575                           
   576                           ;newmain.c: 76:         if (ADCON0bits.GO == 0) {
   577     07A6  1283               	bcf	3,5	;RP0=0, select bank0
   578     07A7  1303               	bcf	3,6	;RP1=0, select bank0
   579     07A8  189F               	btfsc	31,1	;volatile
   580     07A9  2FAB               	goto	u2901
   581     07AA  2FAC               	goto	u2900
   582     07AB                     u2901:
   583     07AB  2F9C               	goto	l2014
   584     07AC                     u2900:
   585     07AC                     l2018:
   586                           
   587                           ;newmain.c: 77:             if (ADCON0bits.CHS == 0b0000){
   588     07AC  0C1F               	rrf	31,w	;volatile
   589     07AD  1683               	bsf	3,5	;RP0=1, select bank1
   590     07AE  1303               	bcf	3,6	;RP1=0, select bank1
   591     07AF  00AF               	movwf	??_main^(0+128)
   592     07B0  0C2F               	rrf	??_main^(0+128),w
   593     07B1  390F               	andlw	15
   594     07B2  3A00               	xorlw	0
   595     07B3  1D03               	skipz
   596     07B4  2FB6               	goto	u2911
   597     07B5  2FB7               	goto	u2910
   598     07B6                     u2911:
   599     07B6  2FBE               	goto	l2022
   600     07B7                     u2910:
   601     07B7                     l2020:
   602                           
   603                           ;newmain.c: 78:             ADCON0bits.CHS = 0b0100;
   604     07B7  1283               	bcf	3,5	;RP0=0, select bank0
   605     07B8  1303               	bcf	3,6	;RP1=0, select bank0
   606     07B9  081F               	movf	31,w	;volatile
   607     07BA  39C3               	andlw	-61
   608     07BB  3810               	iorlw	16
   609     07BC  009F               	movwf	31	;volatile
   610                           
   611                           ;newmain.c: 79:             }
   612     07BD  2FCF               	goto	l2026
   613     07BE                     l2022:
   614     07BE  1283               	bcf	3,5	;RP0=0, select bank0
   615     07BF  1303               	bcf	3,6	;RP1=0, select bank0
   616     07C0  0C1F               	rrf	31,w	;volatile
   617     07C1  1683               	bsf	3,5	;RP0=1, select bank1
   618     07C2  1303               	bcf	3,6	;RP1=0, select bank1
   619     07C3  00AF               	movwf	??_main^(0+128)
   620     07C4  0C2F               	rrf	??_main^(0+128),w
   621     07C5  390F               	andlw	15
   622     07C6  3A04               	xorlw	4
   623     07C7  1D03               	skipz
   624     07C8  2FCA               	goto	u2921
   625     07C9  2FCB               	goto	u2920
   626     07CA                     u2921:
   627     07CA  2FCF               	goto	l2026
   628     07CB                     u2920:
   629     07CB                     l2024:
   630                           
   631                           ;newmain.c: 81:             ADCON0bits.CHS = 0b0000;
   632     07CB  30C3               	movlw	-61
   633     07CC  1283               	bcf	3,5	;RP0=0, select bank0
   634     07CD  1303               	bcf	3,6	;RP1=0, select bank0
   635     07CE  059F               	andwf	31,f	;volatile
   636     07CF                     l2026:
   637                           
   638                           ;newmain.c: 83:             ADCON0bits.GO = 1;
   639     07CF  1283               	bcf	3,5	;RP0=0, select bank0
   640     07D0  149F               	bsf	31,1	;volatile
   641     07D1                     l2028:
   642                           
   643                           ;newmain.c: 84:             _delay((unsigned long)((20)*(4000000/4000000.0)));
   644     07D1  3005               	movlw	5
   645     07D2  1683               	bsf	3,5	;RP0=1, select bank1
   646     07D3  1303               	bcf	3,6	;RP1=0, select bank1
   647     07D4  00AF               	movwf	??_main^(0+128)
   648     07D5                     u2947:
   649     07D5  0BAF               	decfsz	??_main^(0+128),f
   650     07D6  2FD5               	goto	u2947
   651     07D7  2FD8               	nop2
   652     07D8  2F9C               	goto	l2014
   653     07D9  120A  118A  2810   	ljmp	start
   654     07DC                     __end_of_main:
   655                           
   656                           	psect	text1
   657     0D32                     __ptext1:	
   658 ;; *************** function _setupPWM *****************
   659 ;; Defined at:
   660 ;;		line 127 in file "newmain.c"
   661 ;; Parameters:    Size  Location     Type
   662 ;;		None
   663 ;; Auto vars:     Size  Location     Type
   664 ;;		None
   665 ;; Return value:  Size  Location     Type
   666 ;;                  1    wreg      void 
   667 ;; Registers used:
   668 ;;		wreg, status,2, status,0
   669 ;; Tracked objects:
   670 ;;		On entry : 0/0
   671 ;;		On exit  : 0/0
   672 ;;		Unchanged: 0/0
   673 ;; Data sizes:     COMMON   BANK0   BANK1   BANK3   BANK2
   674 ;;      Params:         0       0       0       0       0
   675 ;;      Locals:         0       0       0       0       0
   676 ;;      Temps:          0       0       0       0       0
   677 ;;      Totals:         0       0       0       0       0
   678 ;;Total ram usage:        0 bytes
   679 ;; Hardware stack levels used: 1
   680 ;; Hardware stack levels required when called: 4
   681 ;; This function calls:
   682 ;;		Nothing
   683 ;; This function is called by:
   684 ;;		_main
   685 ;; This function uses a non-reentrant model
   686 ;;
   687                           
   688     0D32                     _setupPWM:	
   689                           ;psect for function _setupPWM
   690                           
   691     0D32                     l1950:	
   692                           ;incstack = 0
   693                           ; Regs used in _setupPWM: [wreg+status,2+status,0]
   694                           
   695                           
   696                           ;newmain.c: 129:     TRISCbits.TRISC1 = 1;
   697     0D32  1683               	bsf	3,5	;RP0=1, select bank1
   698     0D33  1303               	bcf	3,6	;RP1=0, select bank1
   699     0D34  1487               	bsf	7,1	;volatile
   700                           
   701                           ;newmain.c: 130:     TRISCbits.TRISC2 = 1;
   702     0D35  1507               	bsf	7,2	;volatile
   703     0D36                     l1952:
   704                           
   705                           ;newmain.c: 131:     PR2 = 249;
   706     0D36  30F9               	movlw	249
   707     0D37  0092               	movwf	18	;volatile
   708     0D38                     l1954:
   709                           
   710                           ;newmain.c: 133:     CCP1CON = 0;
   711     0D38  1283               	bcf	3,5	;RP0=0, select bank0
   712     0D39  1303               	bcf	3,6	;RP1=0, select bank0
   713     0D3A  0197               	clrf	23	;volatile
   714     0D3B                     l1956:
   715                           
   716                           ;newmain.c: 134:     CCP2CON = 0;
   717     0D3B  019D               	clrf	29	;volatile
   718     0D3C                     l1958:
   719                           
   720                           ;newmain.c: 136:     CCP1CONbits.P1M = 0;
   721     0D3C  303F               	movlw	-193
   722     0D3D  0597               	andwf	23,f	;volatile
   723     0D3E                     l1960:
   724                           
   725                           ;newmain.c: 137:     CCP1CONbits.CCP1M = 0b00001100;
   726     0D3E  0817               	movf	23,w	;volatile
   727     0D3F  39F0               	andlw	-16
   728     0D40  380C               	iorlw	12
   729     0D41  0097               	movwf	23	;volatile
   730     0D42                     l1962:
   731                           
   732                           ;newmain.c: 138:     CCP2CONbits.CCP2M = 0b00001100;
   733     0D42  081D               	movf	29,w	;volatile
   734     0D43  39F0               	andlw	-16
   735     0D44  380C               	iorlw	12
   736     0D45  009D               	movwf	29	;volatile
   737     0D46                     l1964:
   738                           
   739                           ;newmain.c: 140:     CCPR1L = 250 >> 2;
   740     0D46  303E               	movlw	62
   741     0D47  0095               	movwf	21	;volatile
   742                           
   743                           ;newmain.c: 141:     CCP1CONbits.DC1B = 250 & 0b11;
   744     0D48  0817               	movf	23,w	;volatile
   745     0D49  39CF               	andlw	-49
   746     0D4A  3820               	iorlw	32
   747     0D4B  0097               	movwf	23	;volatile
   748     0D4C                     l1966:
   749                           
   750                           ;newmain.c: 143:     CCPR2L = 250 >> 2;
   751     0D4C  303E               	movlw	62
   752     0D4D  009B               	movwf	27	;volatile
   753     0D4E                     l1968:
   754                           
   755                           ;newmain.c: 144:     CCP2CONbits.DC2B0 = 250 & 0b01;
   756     0D4E  121D               	bcf	29,4	;volatile
   757     0D4F                     l1970:
   758                           
   759                           ;newmain.c: 145:     CCP2CONbits.DC2B1 = 250 & 0b10;
   760     0D4F  129D               	bcf	29,5	;volatile
   761     0D50                     l1972:
   762                           
   763                           ;newmain.c: 149:     PIR1bits.TMR2IF = 0;
   764     0D50  108C               	bcf	12,1	;volatile
   765     0D51                     l1974:
   766                           
   767                           ;newmain.c: 150:     T2CONbits.T2CKPS = 0b11;
   768     0D51  3003               	movlw	3
   769     0D52  0492               	iorwf	18,f	;volatile
   770     0D53                     l1976:
   771                           
   772                           ;newmain.c: 151:     T2CONbits.TMR2ON = 1;
   773     0D53  1512               	bsf	18,2	;volatile
   774     0D54                     l89:	
   775                           ;newmain.c: 153:     while (PIR1bits.TMR2IF == 0);
   776                           
   777     0D54  1C8C               	btfss	12,1	;volatile
   778     0D55  2D57               	goto	u2861
   779     0D56  2D58               	goto	u2860
   780     0D57                     u2861:
   781     0D57  2D54               	goto	l89
   782     0D58                     u2860:
   783     0D58                     l91:
   784                           
   785                           ;newmain.c: 154:     PIR1bits.TMR2IF = 0;
   786     0D58  108C               	bcf	12,1	;volatile
   787                           
   788                           ;newmain.c: 155:     TRISCbits.TRISC2 = 0;
   789     0D59  1683               	bsf	3,5	;RP0=1, select bank1
   790     0D5A  1303               	bcf	3,6	;RP1=0, select bank1
   791     0D5B  1107               	bcf	7,2	;volatile
   792                           
   793                           ;newmain.c: 156:     TRISCbits.TRISC1 = 0;
   794     0D5C  1087               	bcf	7,1	;volatile
   795     0D5D                     l92:
   796     0D5D  0008               	return
   797     0D5E                     __end_of_setupPWM:
   798                           
   799                           	psect	text2
   800     07DC                     __ptext2:	
   801 ;; *************** function _setupADC *****************
   802 ;; Defined at:
   803 ;;		line 160 in file "newmain.c"
   804 ;; Parameters:    Size  Location     Type
   805 ;;		None
   806 ;; Auto vars:     Size  Location     Type
   807 ;;		None
   808 ;; Return value:  Size  Location     Type
   809 ;;                  1    wreg      void 
   810 ;; Registers used:
   811 ;;		wreg, status,2, status,0
   812 ;; Tracked objects:
   813 ;;		On entry : 0/0
   814 ;;		On exit  : 0/0
   815 ;;		Unchanged: 0/0
   816 ;; Data sizes:     COMMON   BANK0   BANK1   BANK3   BANK2
   817 ;;      Params:         0       0       0       0       0
   818 ;;      Locals:         0       0       0       0       0
   819 ;;      Temps:          0       0       1       0       0
   820 ;;      Totals:         0       0       1       0       0
   821 ;;Total ram usage:        1 bytes
   822 ;; Hardware stack levels used: 1
   823 ;; Hardware stack levels required when called: 4
   824 ;; This function calls:
   825 ;;		Nothing
   826 ;; This function is called by:
   827 ;;		_main
   828 ;; This function uses a non-reentrant model
   829 ;;
   830                           
   831     07DC                     _setupADC:	
   832                           ;psect for function _setupADC
   833                           
   834     07DC                     l1978:	
   835                           ;incstack = 0
   836                           ; Regs used in _setupADC: [wreg+status,2+status,0]
   837                           
   838                           
   839                           ;newmain.c: 162:     ADCON0bits.CHS = 0b0000;
   840     07DC  30C3               	movlw	-61
   841     07DD  1283               	bcf	3,5	;RP0=0, select bank0
   842     07DE  1303               	bcf	3,6	;RP1=0, select bank0
   843     07DF  059F               	andwf	31,f	;volatile
   844     07E0                     l1980:
   845                           
   846                           ;newmain.c: 166:     ADCON1bits.VCFG1 = 0;
   847     07E0  1683               	bsf	3,5	;RP0=1, select bank1
   848     07E1  1303               	bcf	3,6	;RP1=0, select bank1
   849     07E2  129F               	bcf	31,5	;volatile
   850     07E3                     l1982:
   851                           
   852                           ;newmain.c: 167:     ADCON1bits.VCFG0 = 0;
   853     07E3  121F               	bcf	31,4	;volatile
   854                           
   855                           ;newmain.c: 170:     ADCON0bits.ADCS = 0b10;
   856     07E4  1283               	bcf	3,5	;RP0=0, select bank0
   857     07E5  1303               	bcf	3,6	;RP1=0, select bank0
   858     07E6  081F               	movf	31,w	;volatile
   859     07E7  393F               	andlw	-193
   860     07E8  3880               	iorlw	128
   861     07E9  009F               	movwf	31	;volatile
   862     07EA                     l1984:
   863                           
   864                           ;newmain.c: 176:     ADCON1bits.ADFM = 0;
   865     07EA  1683               	bsf	3,5	;RP0=1, select bank1
   866     07EB  1303               	bcf	3,6	;RP1=0, select bank1
   867     07EC  139F               	bcf	31,7	;volatile
   868     07ED                     l1986:
   869                           
   870                           ;newmain.c: 179:     ADCON0bits.ADON = 1;
   871     07ED  1283               	bcf	3,5	;RP0=0, select bank0
   872     07EE  1303               	bcf	3,6	;RP1=0, select bank0
   873     07EF  141F               	bsf	31,0	;volatile
   874     07F0                     l1988:
   875                           
   876                           ;newmain.c: 180:     _delay((unsigned long)((1)*(4000000/4000.0)));
   877     07F0  30C7               	movlw	199
   878     07F1  1683               	bsf	3,5	;RP0=1, select bank1
   879     07F2  1303               	bcf	3,6	;RP1=0, select bank1
   880     07F3  00AE               	movwf	??_setupADC^(0+128)
   881     07F4                     u2957:
   882     07F4  2FF5               	nop2
   883     07F5  0BAE               	decfsz	??_setupADC^(0+128),f
   884     07F6  2FF4               	goto	u2957
   885     07F7  2FF8               	nop2
   886     07F8                     l95:
   887     07F8  0008               	return
   888     07F9                     __end_of_setupADC:
   889                           
   890                           	psect	text3
   891     0CEE                     __ptext3:	
   892 ;; *************** function _setup *****************
   893 ;; Defined at:
   894 ;;		line 94 in file "newmain.c"
   895 ;; Parameters:    Size  Location     Type
   896 ;;		None
   897 ;; Auto vars:     Size  Location     Type
   898 ;;		None
   899 ;; Return value:  Size  Location     Type
   900 ;;                  1    wreg      void 
   901 ;; Registers used:
   902 ;;		wreg, status,2, status,0
   903 ;; Tracked objects:
   904 ;;		On entry : 0/0
   905 ;;		On exit  : 0/0
   906 ;;		Unchanged: 0/0
   907 ;; Data sizes:     COMMON   BANK0   BANK1   BANK3   BANK2
   908 ;;      Params:         0       0       0       0       0
   909 ;;      Locals:         0       0       0       0       0
   910 ;;      Temps:          0       0       0       0       0
   911 ;;      Totals:         0       0       0       0       0
   912 ;;Total ram usage:        0 bytes
   913 ;; Hardware stack levels used: 1
   914 ;; Hardware stack levels required when called: 4
   915 ;; This function calls:
   916 ;;		Nothing
   917 ;; This function is called by:
   918 ;;		_main
   919 ;; This function uses a non-reentrant model
   920 ;;
   921                           
   922     0CEE                     _setup:	
   923                           ;psect for function _setup
   924                           
   925     0CEE                     l1934:	
   926                           ;incstack = 0
   927                           ; Regs used in _setup: [wreg+status,2+status,0]
   928                           
   929                           
   930                           ;newmain.c: 96:     ANSELbits.ANS0 = 1;
   931     0CEE  1683               	bsf	3,5	;RP0=1, select bank3
   932     0CEF  1703               	bsf	3,6	;RP1=1, select bank3
   933     0CF0  1408               	bsf	8,0	;volatile
   934                           
   935                           ;newmain.c: 97:     ANSELbits.ANS4 = 1;
   936     0CF1  1608               	bsf	8,4	;volatile
   937     0CF2                     l1936:
   938                           
   939                           ;newmain.c: 98:     ANSELH = 0;
   940     0CF2  0189               	clrf	9	;volatile
   941                           
   942                           ;newmain.c: 101:     TRISC = 0;
   943     0CF3  1683               	bsf	3,5	;RP0=1, select bank1
   944     0CF4  1303               	bcf	3,6	;RP1=0, select bank1
   945     0CF5  0187               	clrf	7	;volatile
   946                           
   947                           ;newmain.c: 104:     PORTA = 0;
   948     0CF6  1283               	bcf	3,5	;RP0=0, select bank0
   949     0CF7  1303               	bcf	3,6	;RP1=0, select bank0
   950     0CF8  0185               	clrf	5	;volatile
   951                           
   952                           ;newmain.c: 105:     PORTB = 0;
   953     0CF9  0186               	clrf	6	;volatile
   954                           
   955                           ;newmain.c: 106:     PORTC = 0;
   956     0CFA  0187               	clrf	7	;volatile
   957                           
   958                           ;newmain.c: 107:     PORTD = 0;
   959     0CFB  0188               	clrf	8	;volatile
   960                           
   961                           ;newmain.c: 108:     PORTE = 0;
   962     0CFC  0189               	clrf	9	;volatile
   963     0CFD                     l1938:
   964                           
   965                           ;newmain.c: 111:     OSCCONbits.IRCF = 0b110 ;
   966     0CFD  1683               	bsf	3,5	;RP0=1, select bank1
   967     0CFE  1303               	bcf	3,6	;RP1=0, select bank1
   968     0CFF  080F               	movf	15,w	;volatile
   969     0D00  398F               	andlw	-113
   970     0D01  3860               	iorlw	96
   971     0D02  008F               	movwf	15	;volatile
   972     0D03                     l1940:
   973                           
   974                           ;newmain.c: 112:     OSCCONbits.SCS = 1;
   975     0D03  140F               	bsf	15,0	;volatile
   976     0D04                     l1942:
   977                           
   978                           ;newmain.c: 116:     INTCONbits.GIE = 1;
   979     0D04  178B               	bsf	11,7	;volatile
   980     0D05                     l1944:
   981                           
   982                           ;newmain.c: 117:     INTCONbits.PEIE = 1;
   983     0D05  170B               	bsf	11,6	;volatile
   984     0D06                     l1946:
   985                           
   986                           ;newmain.c: 120:     PIE1bits.ADIE = 1;
   987     0D06  170C               	bsf	12,6	;volatile
   988     0D07                     l1948:
   989                           
   990                           ;newmain.c: 121:     PIR1bits.ADIF = 0;
   991     0D07  1283               	bcf	3,5	;RP0=0, select bank0
   992     0D08  1303               	bcf	3,6	;RP1=0, select bank0
   993     0D09  130C               	bcf	12,6	;volatile
   994     0D0A                     l86:
   995     0D0A  0008               	return
   996     0D0B                     __end_of_setup:
   997                           
   998                           	psect	text4
   999     0E9A                     __ptext4:	
  1000 ;; *************** function _isr *****************
  1001 ;; Defined at:
  1002 ;;		line 43 in file "newmain.c"
  1003 ;; Parameters:    Size  Location     Type
  1004 ;;		None
  1005 ;; Auto vars:     Size  Location     Type
  1006 ;;		None
  1007 ;; Return value:  Size  Location     Type
  1008 ;;                  1    wreg      void 
  1009 ;; Registers used:
  1010 ;;		wreg, status,2, status,0, btemp+1, pclath, cstack
  1011 ;; Tracked objects:
  1012 ;;		On entry : 0/0
  1013 ;;		On exit  : 0/0
  1014 ;;		Unchanged: 0/0
  1015 ;; Data sizes:     COMMON   BANK0   BANK1   BANK3   BANK2
  1016 ;;      Params:         0       0       0       0       0
  1017 ;;      Locals:         0       0       0       0       0
  1018 ;;      Temps:          0       0       5       0       0
  1019 ;;      Totals:         0       0       5       0       0
  1020 ;;Total ram usage:        5 bytes
  1021 ;; Hardware stack levels used: 1
  1022 ;; Hardware stack levels required when called: 3
  1023 ;; This function calls:
  1024 ;;		_map
  1025 ;; This function is called by:
  1026 ;;		Interrupt level 1
  1027 ;; This function uses a non-reentrant model
  1028 ;;
  1029                           
  1030     0E9A                     _isr:	
  1031                           ;psect for function _isr
  1032                           
  1033     0E9A                     i1l1990:
  1034                           
  1035                           ;newmain.c: 44:     if (PIR1bits.ADIF) {
  1036     0E9A  1283               	bcf	3,5	;RP0=0, select bank0
  1037     0E9B  1303               	bcf	3,6	;RP1=0, select bank0
  1038     0E9C  1F0C               	btfss	12,6	;volatile
  1039     0E9D  2E9F               	goto	u287_21
  1040     0E9E  2EA0               	goto	u287_20
  1041     0E9F                     u287_21:
  1042     0E9F  2F3D               	goto	i1l71
  1043     0EA0                     u287_20:
  1044     0EA0                     i1l1992:
  1045                           
  1046                           ;newmain.c: 45:         if (ADCON0bits.CHS == 0b0000){
  1047     0EA0  0C1F               	rrf	31,w	;volatile
  1048     0EA1  1683               	bsf	3,5	;RP0=1, select bank1
  1049     0EA2  1303               	bcf	3,6	;RP1=0, select bank1
  1050     0EA3  00A9               	movwf	??_isr^(0+128)
  1051     0EA4  0C29               	rrf	??_isr^(0+128),w
  1052     0EA5  390F               	andlw	15
  1053     0EA6  3A00               	xorlw	0
  1054     0EA7  1D03               	skipz
  1055     0EA8  2EAA               	goto	u288_21
  1056     0EA9  2EAB               	goto	u288_20
  1057     0EAA                     u288_21:
  1058     0EAA  2EE4               	goto	i1l2000
  1059     0EAB                     u288_20:
  1060     0EAB                     i1l1994:
  1061                           
  1062                           ;newmain.c: 46:             CCPR1VAR = map(ADRESH, 0, 255, 100, 600);
  1063     0EAB  01A2               	clrf	map@IN_MIN^(0+128)
  1064     0EAC  30FF               	movlw	255
  1065     0EAD  00A3               	movwf	map@IN_MAX^(0+128)
  1066     0EAE  3064               	movlw	100
  1067     0EAF  00A4               	movwf	map@OUT_MIN^(0+128)
  1068     0EB0  3000               	movlw	0
  1069     0EB1  00A5               	movwf	(map@OUT_MIN^(0+128)+1)
  1070     0EB2  3058               	movlw	88
  1071     0EB3  00A6               	movwf	map@OUT_MAX^(0+128)
  1072     0EB4  3002               	movlw	2
  1073     0EB5  00A7               	movwf	(map@OUT_MAX^(0+128)+1)
  1074     0EB6  1283               	bcf	3,5	;RP0=0, select bank0
  1075     0EB7  1303               	bcf	3,6	;RP1=0, select bank0
  1076     0EB8  081E               	movf	30,w	;volatile
  1077     0EB9  120A  158A  25EC  120A  158A  	fcall	_map
  1078     0EBE  1683               	bsf	3,5	;RP0=1, select bank1
  1079     0EBF  1303               	bcf	3,6	;RP1=0, select bank1
  1080     0EC0  0823               	movf	(?_map+1)^(0+128),w
  1081     0EC1  00B4               	movwf	(_CCPR1VAR+1)^(0+128)
  1082     0EC2  0822               	movf	?_map^(0+128),w
  1083     0EC3  00B3               	movwf	_CCPR1VAR^(0+128)
  1084     0EC4                     i1l1996:
  1085                           
  1086                           ;newmain.c: 47:             CCPR1L = (uint8_t)(CCPR1VAR>>2);
  1087     0EC4  0834               	movf	(_CCPR1VAR+1)^(0+128),w
  1088     0EC5  00AA               	movwf	(??_isr^(0+128)+1)
  1089     0EC6  0833               	movf	_CCPR1VAR^(0+128),w
  1090     0EC7  00A9               	movwf	??_isr^(0+128)
  1091     0EC8  1003               	clrc
  1092     0EC9  0CAA               	rrf	(??_isr^(0+128)+1),f
  1093     0ECA  0CA9               	rrf	??_isr^(0+128),f
  1094     0ECB  1003               	clrc
  1095     0ECC  0CAA               	rrf	(??_isr^(0+128)+1),f
  1096     0ECD  0CA9               	rrf	??_isr^(0+128),f
  1097     0ECE  0829               	movf	??_isr^(0+128),w
  1098     0ECF  1283               	bcf	3,5	;RP0=0, select bank0
  1099     0ED0  1303               	bcf	3,6	;RP1=0, select bank0
  1100     0ED1  0095               	movwf	21	;volatile
  1101     0ED2                     i1l1998:
  1102                           
  1103                           ;newmain.c: 48:             CCP1CONbits.DC1B = CCPR1VAR & 0b11;
  1104     0ED2  1683               	bsf	3,5	;RP0=1, select bank1
  1105     0ED3  1303               	bcf	3,6	;RP1=0, select bank1
  1106     0ED4  0833               	movf	_CCPR1VAR^(0+128),w
  1107     0ED5  3903               	andlw	3
  1108     0ED6  00A9               	movwf	??_isr^(0+128)
  1109     0ED7  0EA9               	swapf	??_isr^(0+128),f
  1110     0ED8  1283               	bcf	3,5	;RP0=0, select bank0
  1111     0ED9  1303               	bcf	3,6	;RP1=0, select bank0
  1112     0EDA  0817               	movf	23,w	;volatile
  1113     0EDB  1683               	bsf	3,5	;RP0=1, select bank1
  1114     0EDC  1303               	bcf	3,6	;RP1=0, select bank1
  1115     0EDD  0629               	xorwf	??_isr^(0+128),w
  1116     0EDE  39CF               	andlw	-49
  1117     0EDF  0629               	xorwf	??_isr^(0+128),w
  1118     0EE0  1283               	bcf	3,5	;RP0=0, select bank0
  1119     0EE1  1303               	bcf	3,6	;RP1=0, select bank0
  1120     0EE2  0097               	movwf	23	;volatile
  1121                           
  1122                           ;newmain.c: 50:         }
  1123     0EE3  2F3B               	goto	i1l2010
  1124     0EE4                     i1l2000:
  1125     0EE4  1283               	bcf	3,5	;RP0=0, select bank0
  1126     0EE5  1303               	bcf	3,6	;RP1=0, select bank0
  1127     0EE6  0C1F               	rrf	31,w	;volatile
  1128     0EE7  1683               	bsf	3,5	;RP0=1, select bank1
  1129     0EE8  1303               	bcf	3,6	;RP1=0, select bank1
  1130     0EE9  00A9               	movwf	??_isr^(0+128)
  1131     0EEA  0C29               	rrf	??_isr^(0+128),w
  1132     0EEB  390F               	andlw	15
  1133     0EEC  3A04               	xorlw	4
  1134     0EED  1D03               	skipz
  1135     0EEE  2EF0               	goto	u289_21
  1136     0EEF  2EF1               	goto	u289_20
  1137     0EF0                     u289_21:
  1138     0EF0  2F3B               	goto	i1l2010
  1139     0EF1                     u289_20:
  1140     0EF1                     i1l2002:
  1141                           
  1142                           ;newmain.c: 52:             CCPR2VAR = map(ADRESH, 0, 255, 100, 600);
  1143     0EF1  01A2               	clrf	map@IN_MIN^(0+128)
  1144     0EF2  30FF               	movlw	255
  1145     0EF3  00A3               	movwf	map@IN_MAX^(0+128)
  1146     0EF4  3064               	movlw	100
  1147     0EF5  00A4               	movwf	map@OUT_MIN^(0+128)
  1148     0EF6  3000               	movlw	0
  1149     0EF7  00A5               	movwf	(map@OUT_MIN^(0+128)+1)
  1150     0EF8  3058               	movlw	88
  1151     0EF9  00A6               	movwf	map@OUT_MAX^(0+128)
  1152     0EFA  3002               	movlw	2
  1153     0EFB  00A7               	movwf	(map@OUT_MAX^(0+128)+1)
  1154     0EFC  1283               	bcf	3,5	;RP0=0, select bank0
  1155     0EFD  1303               	bcf	3,6	;RP1=0, select bank0
  1156     0EFE  081E               	movf	30,w	;volatile
  1157     0EFF  120A  158A  25EC  120A  158A  	fcall	_map
  1158     0F04  1683               	bsf	3,5	;RP0=1, select bank1
  1159     0F05  1303               	bcf	3,6	;RP1=0, select bank1
  1160     0F06  0823               	movf	(?_map+1)^(0+128),w
  1161     0F07  00B2               	movwf	(_CCPR2VAR+1)^(0+128)
  1162     0F08  0822               	movf	?_map^(0+128),w
  1163     0F09  00B1               	movwf	_CCPR2VAR^(0+128)
  1164     0F0A                     i1l2004:
  1165                           
  1166                           ;newmain.c: 53:             CCPR2L = (uint8_t)(CCPR2VAR>>2);
  1167     0F0A  0832               	movf	(_CCPR2VAR+1)^(0+128),w
  1168     0F0B  00AA               	movwf	(??_isr^(0+128)+1)
  1169     0F0C  0831               	movf	_CCPR2VAR^(0+128),w
  1170     0F0D  00A9               	movwf	??_isr^(0+128)
  1171     0F0E  1003               	clrc
  1172     0F0F  0CAA               	rrf	(??_isr^(0+128)+1),f
  1173     0F10  0CA9               	rrf	??_isr^(0+128),f
  1174     0F11  1003               	clrc
  1175     0F12  0CAA               	rrf	(??_isr^(0+128)+1),f
  1176     0F13  0CA9               	rrf	??_isr^(0+128),f
  1177     0F14  0829               	movf	??_isr^(0+128),w
  1178     0F15  1283               	bcf	3,5	;RP0=0, select bank0
  1179     0F16  1303               	bcf	3,6	;RP1=0, select bank0
  1180     0F17  009B               	movwf	27	;volatile
  1181     0F18                     i1l2006:
  1182                           
  1183                           ;newmain.c: 54:             CCP2CONbits.DC2B0 = CCPR2VAR & 0b01;
  1184     0F18  1683               	bsf	3,5	;RP0=1, select bank1
  1185     0F19  1303               	bcf	3,6	;RP1=0, select bank1
  1186     0F1A  0831               	movf	_CCPR2VAR^(0+128),w
  1187     0F1B  3901               	andlw	1
  1188     0F1C  00A9               	movwf	??_isr^(0+128)
  1189     0F1D  0EA9               	swapf	??_isr^(0+128),f
  1190     0F1E  1283               	bcf	3,5	;RP0=0, select bank0
  1191     0F1F  1303               	bcf	3,6	;RP1=0, select bank0
  1192     0F20  081D               	movf	29,w	;volatile
  1193     0F21  1683               	bsf	3,5	;RP0=1, select bank1
  1194     0F22  1303               	bcf	3,6	;RP1=0, select bank1
  1195     0F23  0629               	xorwf	??_isr^(0+128),w
  1196     0F24  39EF               	andlw	-17
  1197     0F25  0629               	xorwf	??_isr^(0+128),w
  1198     0F26  1283               	bcf	3,5	;RP0=0, select bank0
  1199     0F27  1303               	bcf	3,6	;RP1=0, select bank0
  1200     0F28  009D               	movwf	29	;volatile
  1201     0F29                     i1l2008:
  1202                           
  1203                           ;newmain.c: 55:             CCP2CONbits.DC2B1 = CCPR2VAR & 0b10;
  1204     0F29  1683               	bsf	3,5	;RP0=1, select bank1
  1205     0F2A  1303               	bcf	3,6	;RP1=0, select bank1
  1206     0F2B  0831               	movf	_CCPR2VAR^(0+128),w
  1207     0F2C  3902               	andlw	2
  1208     0F2D  00A9               	movwf	??_isr^(0+128)
  1209     0F2E  0EA9               	swapf	??_isr^(0+128),f
  1210     0F2F  0DA9               	rlf	??_isr^(0+128),f
  1211     0F30  1283               	bcf	3,5	;RP0=0, select bank0
  1212     0F31  1303               	bcf	3,6	;RP1=0, select bank0
  1213     0F32  081D               	movf	29,w	;volatile
  1214     0F33  1683               	bsf	3,5	;RP0=1, select bank1
  1215     0F34  1303               	bcf	3,6	;RP1=0, select bank1
  1216     0F35  0629               	xorwf	??_isr^(0+128),w
  1217     0F36  39DF               	andlw	-33
  1218     0F37  0629               	xorwf	??_isr^(0+128),w
  1219     0F38  1283               	bcf	3,5	;RP0=0, select bank0
  1220     0F39  1303               	bcf	3,6	;RP1=0, select bank0
  1221     0F3A  009D               	movwf	29	;volatile
  1222     0F3B                     i1l2010:
  1223                           
  1224                           ;newmain.c: 58:         PIR1bits.ADIF = 0;
  1225     0F3B  1283               	bcf	3,5	;RP0=0, select bank0
  1226     0F3C  130C               	bcf	12,6	;volatile
  1227     0F3D                     i1l71:
  1228     0F3D  1683               	bsf	3,5	;RP0=1, select bank1
  1229     0F3E  1303               	bcf	3,6	;RP1=0, select bank1
  1230     0F3F  082D               	movf	(??_isr+4)^(0+128),w
  1231     0F40  00FF               	movwf	btemp+1
  1232     0F41  082C               	movf	(??_isr+3)^(0+128),w
  1233     0F42  008A               	movwf	10
  1234     0F43  0E2B               	swapf	(??_isr+2)^(0+128),w
  1235     0F44  0083               	movwf	3
  1236     0F45  0EFE               	swapf	btemp,f
  1237     0F46  0E7E               	swapf	btemp,w
  1238     0F47  0009               	retfie
  1239     0F48                     __end_of_isr:
  1240                           
  1241                           	psect	intentry
  1242     0004                     __pintentry:	
  1243                           ;incstack = 0
  1244                           ; Regs used in _isr: [wreg+status,2+status,0+btemp+1+pclath+cstack]
  1245                           
  1246     0004                     interrupt_function:
  1247     007E                     saved_w	set	btemp
  1248     0004  00FE               	movwf	btemp
  1249     0005  0E03               	swapf	3,w
  1250     0006  1683               	bsf	3,5	;RP0=1, select bank1
  1251     0007  1303               	bcf	3,6	;RP1=0, select bank1
  1252     0008  00AB               	movwf	(??_isr+2)^(0+128)
  1253     0009  080A               	movf	10,w
  1254     000A  00AC               	movwf	(??_isr+3)^(0+128)
  1255     000B  087F               	movf	btemp+1,w
  1256     000C  00AD               	movwf	(??_isr+4)^(0+128)
  1257     000D  120A  158A  2E9A   	ljmp	_isr
  1258                           
  1259                           	psect	text5
  1260     0DEC                     __ptext5:	
  1261 ;; *************** function _map *****************
  1262 ;; Defined at:
  1263 ;;		line 194 in file "newmain.c"
  1264 ;; Parameters:    Size  Location     Type
  1265 ;;  INPUT           1    wreg     unsigned char 
  1266 ;;  IN_MIN          1    2[BANK1 ] unsigned char 
  1267 ;;  IN_MAX          1    3[BANK1 ] unsigned char 
  1268 ;;  OUT_MIN         2    4[BANK1 ] unsigned int 
  1269 ;;  OUT_MAX         2    6[BANK1 ] unsigned int 
  1270 ;; Auto vars:     Size  Location     Type
  1271 ;;  INPUT           1    8[BANK1 ] unsigned char 
  1272 ;; Return value:  Size  Location     Type
  1273 ;;                  2    2[BANK1 ] unsigned int 
  1274 ;; Registers used:
  1275 ;;		wreg, status,2, status,0, btemp+1, pclath, cstack
  1276 ;; Tracked objects:
  1277 ;;		On entry : 0/0
  1278 ;;		On exit  : 0/0
  1279 ;;		Unchanged: 0/0
  1280 ;; Data sizes:     COMMON   BANK0   BANK1   BANK3   BANK2
  1281 ;;      Params:         0       0       6       0       0
  1282 ;;      Locals:         0       0       1       0       0
  1283 ;;      Temps:          0       0       0       0       0
  1284 ;;      Totals:         0       0       7       0       0
  1285 ;;Total ram usage:        7 bytes
  1286 ;; Hardware stack levels used: 1
  1287 ;; Hardware stack levels required when called: 2
  1288 ;; This function calls:
  1289 ;;		___fladd
  1290 ;;		___fldiv
  1291 ;;		___flmul
  1292 ;;		___fltol
  1293 ;;		___xxtofl
  1294 ;; This function is called by:
  1295 ;;		_isr
  1296 ;; This function uses a non-reentrant model
  1297 ;;
  1298                           
  1299     0DEC                     _map:	
  1300                           ;psect for function _map
  1301                           
  1302                           
  1303                           ;incstack = 0
  1304                           ; Regs used in _map: [wreg+status,2+status,0+btemp+1+pclath+cstack]
  1305                           ;map@INPUT stored from wreg
  1306     0DEC  1683               	bsf	3,5	;RP0=1, select bank1
  1307     0DED  1303               	bcf	3,6	;RP1=0, select bank1
  1308     0DEE  00A8               	movwf	map@INPUT^(0+128)
  1309     0DEF                     i1l1930:
  1310                           
  1311                           ;newmain.c: 194: unsigned int map(uint8_t INPUT, uint8_t IN_MIN, uint8_t IN_MAX,;newmain
      +                          .c: 195:         unsigned int OUT_MIN, unsigned int OUT_MAX){;newmain.c: 196:     return
      +                           (unsigned int)(OUT_MIN+((float)(OUT_MAX-OUT_MIN)/(IN_MAX-IN_MIN))
  1312     0DEF  0824               	movf	map@OUT_MIN^(0+128),w
  1313     0DF0  00F0               	movwf	___xxtofl@val
  1314     0DF1  0825               	movf	(map@OUT_MIN+1)^(0+128),w
  1315     0DF2  00F1               	movwf	___xxtofl@val+1
  1316     0DF3  01F2               	clrf	___xxtofl@val+2
  1317     0DF4  01F3               	clrf	___xxtofl@val+3
  1318     0DF5  3000               	movlw	0
  1319     0DF6  120A  158A  2748  120A  158A  	fcall	___xxtofl
  1320     0DFB  0873               	movf	?___xxtofl+3,w
  1321     0DFC  1283               	bcf	3,5	;RP0=0, select bank0
  1322     0DFD  1303               	bcf	3,6	;RP1=0, select bank0
  1323     0DFE  00DB               	movwf	___fladd@a+3
  1324     0DFF  0872               	movf	?___xxtofl+2,w
  1325     0E00  00DA               	movwf	___fladd@a+2
  1326     0E01  0871               	movf	?___xxtofl+1,w
  1327     0E02  00D9               	movwf	___fladd@a+1
  1328     0E03  0870               	movf	?___xxtofl,w
  1329     0E04  00D8               	movwf	___fladd@a
  1330     0E05  1683               	bsf	3,5	;RP0=1, select bank1
  1331     0E06  1303               	bcf	3,6	;RP1=0, select bank1
  1332     0E07  0824               	movf	map@OUT_MIN^(0+128),w
  1333     0E08  0226               	subwf	map@OUT_MAX^(0+128),w
  1334     0E09  00F0               	movwf	___xxtofl@val
  1335     0E0A  0825               	movf	(map@OUT_MIN+1)^(0+128),w
  1336     0E0B  1C03               	skipc
  1337     0E0C  0A25               	incf	(map@OUT_MIN+1)^(0+128),w
  1338     0E0D  0227               	subwf	(map@OUT_MAX+1)^(0+128),w
  1339     0E0E  00F1               	movwf	___xxtofl@val+1
  1340     0E0F  01F2               	clrf	___xxtofl@val+2
  1341     0E10  01F3               	clrf	___xxtofl@val+3
  1342     0E11  3000               	movlw	0
  1343     0E12  120A  158A  2748  120A  158A  	fcall	___xxtofl
  1344     0E17  0873               	movf	?___xxtofl+3,w
  1345     0E18  1283               	bcf	3,5	;RP0=0, select bank0
  1346     0E19  1303               	bcf	3,6	;RP1=0, select bank0
  1347     0E1A  00A7               	movwf	___fldiv@b+3
  1348     0E1B  0872               	movf	?___xxtofl+2,w
  1349     0E1C  00A6               	movwf	___fldiv@b+2
  1350     0E1D  0871               	movf	?___xxtofl+1,w
  1351     0E1E  00A5               	movwf	___fldiv@b+1
  1352     0E1F  0870               	movf	?___xxtofl,w
  1353     0E20  00A4               	movwf	___fldiv@b
  1354     0E21  1683               	bsf	3,5	;RP0=1, select bank1
  1355     0E22  1303               	bcf	3,6	;RP1=0, select bank1
  1356     0E23  0822               	movf	map@IN_MIN^(0+128),w
  1357     0E24  0223               	subwf	map@IN_MAX^(0+128),w
  1358     0E25  00F0               	movwf	___xxtofl@val
  1359     0E26  01F1               	clrf	___xxtofl@val+1
  1360     0E27  1C03               	skipc
  1361     0E28  03F1               	decf	___xxtofl@val+1,f
  1362     0E29  01F2               	clrf	___xxtofl@val+2
  1363     0E2A  1BF1               	btfsc	___xxtofl@val+1,7
  1364     0E2B  03F2               	decf	___xxtofl@val+2,f
  1365     0E2C  0872               	movf	___xxtofl@val+2,w
  1366     0E2D  00F3               	movwf	___xxtofl@val+3
  1367     0E2E  3001               	movlw	1
  1368     0E2F  120A  158A  2748  120A  158A  	fcall	___xxtofl
  1369     0E34  0873               	movf	?___xxtofl+3,w
  1370     0E35  1283               	bcf	3,5	;RP0=0, select bank0
  1371     0E36  1303               	bcf	3,6	;RP1=0, select bank0
  1372     0E37  00A3               	movwf	___fldiv@a+3
  1373     0E38  0872               	movf	?___xxtofl+2,w
  1374     0E39  00A2               	movwf	___fldiv@a+2
  1375     0E3A  0871               	movf	?___xxtofl+1,w
  1376     0E3B  00A1               	movwf	___fldiv@a+1
  1377     0E3C  0870               	movf	?___xxtofl,w
  1378     0E3D  00A0               	movwf	___fldiv@a
  1379     0E3E  120A  118A  25BA  120A  158A  	fcall	___fldiv
  1380     0E43  1283               	bcf	3,5	;RP0=0, select bank0
  1381     0E44  1303               	bcf	3,6	;RP1=0, select bank0
  1382     0E45  0823               	movf	?___fldiv+3,w
  1383     0E46  00C1               	movwf	___flmul@a+3
  1384     0E47  0822               	movf	?___fldiv+2,w
  1385     0E48  00C0               	movwf	___flmul@a+2
  1386     0E49  0821               	movf	?___fldiv+1,w
  1387     0E4A  00BF               	movwf	___flmul@a+1
  1388     0E4B  0820               	movf	?___fldiv,w
  1389     0E4C  00BE               	movwf	___flmul@a
  1390     0E4D  1683               	bsf	3,5	;RP0=1, select bank1
  1391     0E4E  1303               	bcf	3,6	;RP1=0, select bank1
  1392     0E4F  0822               	movf	map@IN_MIN^(0+128),w
  1393     0E50  0228               	subwf	map@INPUT^(0+128),w
  1394     0E51  00F0               	movwf	___xxtofl@val
  1395     0E52  01F1               	clrf	___xxtofl@val+1
  1396     0E53  1C03               	skipc
  1397     0E54  03F1               	decf	___xxtofl@val+1,f
  1398     0E55  01F2               	clrf	___xxtofl@val+2
  1399     0E56  1BF1               	btfsc	___xxtofl@val+1,7
  1400     0E57  03F2               	decf	___xxtofl@val+2,f
  1401     0E58  0872               	movf	___xxtofl@val+2,w
  1402     0E59  00F3               	movwf	___xxtofl@val+3
  1403     0E5A  3001               	movlw	1
  1404     0E5B  120A  158A  2748  120A  158A  	fcall	___xxtofl
  1405     0E60  0873               	movf	?___xxtofl+3,w
  1406     0E61  1283               	bcf	3,5	;RP0=0, select bank0
  1407     0E62  1303               	bcf	3,6	;RP1=0, select bank0
  1408     0E63  00BD               	movwf	___flmul@b+3
  1409     0E64  0872               	movf	?___xxtofl+2,w
  1410     0E65  00BC               	movwf	___flmul@b+2
  1411     0E66  0871               	movf	?___xxtofl+1,w
  1412     0E67  00BB               	movwf	___flmul@b+1
  1413     0E68  0870               	movf	?___xxtofl,w
  1414     0E69  00BA               	movwf	___flmul@b
  1415     0E6A  120A  118A  201D  120A  158A  	fcall	___flmul
  1416     0E6F  1283               	bcf	3,5	;RP0=0, select bank0
  1417     0E70  1303               	bcf	3,6	;RP1=0, select bank0
  1418     0E71  083D               	movf	?___flmul+3,w
  1419     0E72  00D7               	movwf	___fladd@b+3
  1420     0E73  083C               	movf	?___flmul+2,w
  1421     0E74  00D6               	movwf	___fladd@b+2
  1422     0E75  083B               	movf	?___flmul+1,w
  1423     0E76  00D5               	movwf	___fladd@b+1
  1424     0E77  083A               	movf	?___flmul,w
  1425     0E78  00D4               	movwf	___fladd@b
  1426     0E79  120A  118A  2362  120A  158A  	fcall	___fladd
  1427     0E7E  1283               	bcf	3,5	;RP0=0, select bank0
  1428     0E7F  1303               	bcf	3,6	;RP1=0, select bank0
  1429     0E80  0857               	movf	?___fladd+3,w
  1430     0E81  00EB               	movwf	___fltol@f1+3
  1431     0E82  0856               	movf	?___fladd+2,w
  1432     0E83  00EA               	movwf	___fltol@f1+2
  1433     0E84  0855               	movf	?___fladd+1,w
  1434     0E85  00E9               	movwf	___fltol@f1+1
  1435     0E86  0854               	movf	?___fladd,w
  1436     0E87  00E8               	movwf	___fltol@f1
  1437     0E88  120A  158A  255E  120A  158A  	fcall	___fltol
  1438     0E8D  1283               	bcf	3,5	;RP0=0, select bank0
  1439     0E8E  1303               	bcf	3,6	;RP1=0, select bank0
  1440     0E8F  0869               	movf	?___fltol+1,w
  1441     0E90  1683               	bsf	3,5	;RP0=1, select bank1
  1442     0E91  1303               	bcf	3,6	;RP1=0, select bank1
  1443     0E92  00A3               	movwf	(?_map+1)^(0+128)
  1444     0E93  1283               	bcf	3,5	;RP0=0, select bank0
  1445     0E94  1303               	bcf	3,6	;RP1=0, select bank0
  1446     0E95  0868               	movf	?___fltol,w
  1447     0E96  1683               	bsf	3,5	;RP0=1, select bank1
  1448     0E97  1303               	bcf	3,6	;RP1=0, select bank1
  1449     0E98  00A2               	movwf	?_map^(0+128)
  1450     0E99                     i1l98:
  1451     0E99  0008               	return
  1452     0E9A                     __end_of_map:
  1453                           
  1454                           	psect	text6
  1455     0F48                     __ptext6:	
  1456 ;; *************** function ___xxtofl *****************
  1457 ;; Defined at:
  1458 ;;		line 10 in file "C:\Program Files\Microchip\xc8\v2.40\pic\sources\c90\common\xxtofl.c"
  1459 ;; Parameters:    Size  Location     Type
  1460 ;;  sign            1    wreg     unsigned char 
  1461 ;;  val             4    0[COMMON] long 
  1462 ;; Auto vars:     Size  Location     Type
  1463 ;;  sign            1    8[COMMON] unsigned char 
  1464 ;;  arg             4   10[COMMON] unsigned long 
  1465 ;;  exp             1    9[COMMON] unsigned char 
  1466 ;; Return value:  Size  Location     Type
  1467 ;;                  4    0[COMMON] unsigned char 
  1468 ;; Registers used:
  1469 ;;		wreg, status,2, status,0
  1470 ;; Tracked objects:
  1471 ;;		On entry : 0/0
  1472 ;;		On exit  : 0/0
  1473 ;;		Unchanged: 0/0
  1474 ;; Data sizes:     COMMON   BANK0   BANK1   BANK3   BANK2
  1475 ;;      Params:         4       0       0       0       0
  1476 ;;      Locals:         6       0       0       0       0
  1477 ;;      Temps:          4       0       0       0       0
  1478 ;;      Totals:        14       0       0       0       0
  1479 ;;Total ram usage:       14 bytes
  1480 ;; Hardware stack levels used: 1
  1481 ;; This function calls:
  1482 ;;		Nothing
  1483 ;; This function is called by:
  1484 ;;		_map
  1485 ;; This function uses a non-reentrant model
  1486 ;;
  1487                           
  1488     0F48                     ___xxtofl:	
  1489                           ;psect for function ___xxtofl
  1490                           
  1491                           
  1492                           ;incstack = 0
  1493                           ; Regs used in ___xxtofl: [wreg+status,2+status,0]
  1494                           ;___xxtofl@sign stored from wreg
  1495     0F48  00F8               	movwf	___xxtofl@sign
  1496     0F49                     i1l1886:
  1497     0F49  0878               	movf	___xxtofl@sign,w
  1498     0F4A  1903               	btfsc	3,2
  1499     0F4B  2F4D               	goto	u272_21
  1500     0F4C  2F4E               	goto	u272_20
  1501     0F4D                     u272_21:
  1502     0F4D  2F62               	goto	i1l1892
  1503     0F4E                     u272_20:
  1504     0F4E                     i1l1888:
  1505     0F4E  1FF3               	btfss	___xxtofl@val+3,7
  1506     0F4F  2F51               	goto	u273_21
  1507     0F50  2F52               	goto	u273_20
  1508     0F51                     u273_21:
  1509     0F51  2F62               	goto	i1l1892
  1510     0F52                     u273_20:
  1511     0F52                     i1l1890:
  1512     0F52  0970               	comf	___xxtofl@val,w
  1513     0F53  00FA               	movwf	___xxtofl@arg
  1514     0F54  0971               	comf	___xxtofl@val+1,w
  1515     0F55  00FB               	movwf	___xxtofl@arg+1
  1516     0F56  0972               	comf	___xxtofl@val+2,w
  1517     0F57  00FC               	movwf	___xxtofl@arg+2
  1518     0F58  0973               	comf	___xxtofl@val+3,w
  1519     0F59  00FD               	movwf	___xxtofl@arg+3
  1520     0F5A  0AFA               	incf	___xxtofl@arg,f
  1521     0F5B  1903               	skipnz
  1522     0F5C  0AFB               	incf	___xxtofl@arg+1,f
  1523     0F5D  1903               	skipnz
  1524     0F5E  0AFC               	incf	___xxtofl@arg+2,f
  1525     0F5F  1903               	skipnz
  1526     0F60  0AFD               	incf	___xxtofl@arg+3,f
  1527     0F61  2F6A               	goto	i1l617
  1528     0F62                     i1l1892:
  1529     0F62  0873               	movf	___xxtofl@val+3,w
  1530     0F63  00FD               	movwf	___xxtofl@arg+3
  1531     0F64  0872               	movf	___xxtofl@val+2,w
  1532     0F65  00FC               	movwf	___xxtofl@arg+2
  1533     0F66  0871               	movf	___xxtofl@val+1,w
  1534     0F67  00FB               	movwf	___xxtofl@arg+1
  1535     0F68  0870               	movf	___xxtofl@val,w
  1536     0F69  00FA               	movwf	___xxtofl@arg
  1537     0F6A                     i1l617:
  1538     0F6A  0873               	movf	___xxtofl@val+3,w
  1539     0F6B  0472               	iorwf	___xxtofl@val+2,w
  1540     0F6C  0471               	iorwf	___xxtofl@val+1,w
  1541     0F6D  0470               	iorwf	___xxtofl@val,w
  1542     0F6E  1D03               	skipz
  1543     0F6F  2F71               	goto	u274_21
  1544     0F70  2F72               	goto	u274_20
  1545     0F71                     u274_21:
  1546     0F71  2F7B               	goto	i1l1898
  1547     0F72                     u274_20:
  1548     0F72                     i1l1894:
  1549     0F72  3000               	movlw	0
  1550     0F73  00F3               	movwf	?___xxtofl+3
  1551     0F74  3000               	movlw	0
  1552     0F75  00F2               	movwf	?___xxtofl+2
  1553     0F76  3000               	movlw	0
  1554     0F77  00F1               	movwf	?___xxtofl+1
  1555     0F78  3000               	movlw	0
  1556     0F79  00F0               	movwf	?___xxtofl
  1557     0F7A  2FFF               	goto	i1l619
  1558     0F7B                     i1l1898:
  1559     0F7B  3096               	movlw	150
  1560     0F7C  00F9               	movwf	___xxtofl@exp
  1561     0F7D  2F8B               	goto	i1l1902
  1562     0F7E                     i1l1900:
  1563     0F7E  3001               	movlw	1
  1564     0F7F  00F4               	movwf	??___xxtofl
  1565     0F80  0874               	movf	??___xxtofl,w
  1566     0F81  07F9               	addwf	___xxtofl@exp,f
  1567     0F82  3001               	movlw	1
  1568     0F83                     u275_25:
  1569     0F83  1003               	clrc
  1570     0F84  0CFD               	rrf	___xxtofl@arg+3,f
  1571     0F85  0CFC               	rrf	___xxtofl@arg+2,f
  1572     0F86  0CFB               	rrf	___xxtofl@arg+1,f
  1573     0F87  0CFA               	rrf	___xxtofl@arg,f
  1574     0F88  3EFF               	addlw	-1
  1575     0F89  1D03               	skipz
  1576     0F8A  2F83               	goto	u275_25
  1577     0F8B                     i1l1902:
  1578     0F8B  30FE               	movlw	254
  1579     0F8C  057D               	andwf	___xxtofl@arg+3,w
  1580     0F8D  1D03               	btfss	3,2
  1581     0F8E  2F90               	goto	u276_21
  1582     0F8F  2F91               	goto	u276_20
  1583     0F90                     u276_21:
  1584     0F90  2F7E               	goto	i1l1900
  1585     0F91                     u276_20:
  1586     0F91  2FAD               	goto	i1l623
  1587     0F92                     i1l1904:
  1588     0F92  3001               	movlw	1
  1589     0F93  00F4               	movwf	??___xxtofl
  1590     0F94  0874               	movf	??___xxtofl,w
  1591     0F95  07F9               	addwf	___xxtofl@exp,f
  1592     0F96                     i1l1906:
  1593     0F96  3001               	movlw	1
  1594     0F97  07FA               	addwf	___xxtofl@arg,f
  1595     0F98  3000               	movlw	0
  1596     0F99  1803               	skipnc
  1597     0F9A  3001               	movlw	1
  1598     0F9B  07FB               	addwf	___xxtofl@arg+1,f
  1599     0F9C  3000               	movlw	0
  1600     0F9D  1803               	skipnc
  1601     0F9E  3001               	movlw	1
  1602     0F9F  07FC               	addwf	___xxtofl@arg+2,f
  1603     0FA0  3000               	movlw	0
  1604     0FA1  1803               	skipnc
  1605     0FA2  3001               	movlw	1
  1606     0FA3  07FD               	addwf	___xxtofl@arg+3,f
  1607     0FA4                     i1l1908:
  1608     0FA4  3001               	movlw	1
  1609     0FA5                     u277_25:
  1610     0FA5  1003               	clrc
  1611     0FA6  0CFD               	rrf	___xxtofl@arg+3,f
  1612     0FA7  0CFC               	rrf	___xxtofl@arg+2,f
  1613     0FA8  0CFB               	rrf	___xxtofl@arg+1,f
  1614     0FA9  0CFA               	rrf	___xxtofl@arg,f
  1615     0FAA  3EFF               	addlw	-1
  1616     0FAB  1D03               	skipz
  1617     0FAC  2FA5               	goto	u277_25
  1618     0FAD                     i1l623:
  1619     0FAD  30FF               	movlw	255
  1620     0FAE  057D               	andwf	___xxtofl@arg+3,w
  1621     0FAF  1D03               	btfss	3,2
  1622     0FB0  2FB2               	goto	u278_21
  1623     0FB1  2FB3               	goto	u278_20
  1624     0FB2                     u278_21:
  1625     0FB2  2F92               	goto	i1l1904
  1626     0FB3                     u278_20:
  1627     0FB3  2FBF               	goto	i1l1912
  1628     0FB4                     i1l1910:
  1629     0FB4  3001               	movlw	1
  1630     0FB5  02F9               	subwf	___xxtofl@exp,f
  1631     0FB6  3001               	movlw	1
  1632     0FB7  00F4               	movwf	??___xxtofl
  1633     0FB8                     u279_25:
  1634     0FB8  1003               	clrc
  1635     0FB9  0DFA               	rlf	___xxtofl@arg,f
  1636     0FBA  0DFB               	rlf	___xxtofl@arg+1,f
  1637     0FBB  0DFC               	rlf	___xxtofl@arg+2,f
  1638     0FBC  0DFD               	rlf	___xxtofl@arg+3,f
  1639     0FBD  0BF4               	decfsz	??___xxtofl,f
  1640     0FBE  2FB8               	goto	u279_25
  1641     0FBF                     i1l1912:
  1642     0FBF  1BFC               	btfsc	___xxtofl@arg+2,7
  1643     0FC0  2FC2               	goto	u280_21
  1644     0FC1  2FC3               	goto	u280_20
  1645     0FC2                     u280_21:
  1646     0FC2  2FC9               	goto	i1l630
  1647     0FC3                     u280_20:
  1648     0FC3                     i1l1914:
  1649     0FC3  3002               	movlw	2
  1650     0FC4  0279               	subwf	___xxtofl@exp,w
  1651     0FC5  1803               	skipnc
  1652     0FC6  2FC8               	goto	u281_21
  1653     0FC7  2FC9               	goto	u281_20
  1654     0FC8                     u281_21:
  1655     0FC8  2FB4               	goto	i1l1910
  1656     0FC9                     u281_20:
  1657     0FC9                     i1l630:
  1658     0FC9  1879               	btfsc	___xxtofl@exp,0
  1659     0FCA  2FCC               	goto	u282_21
  1660     0FCB  2FCD               	goto	u282_20
  1661     0FCC                     u282_21:
  1662     0FCC  2FD5               	goto	i1l631
  1663     0FCD                     u282_20:
  1664     0FCD                     i1l1916:
  1665     0FCD  30FF               	movlw	255
  1666     0FCE  05FA               	andwf	___xxtofl@arg,f
  1667     0FCF  30FF               	movlw	255
  1668     0FD0  05FB               	andwf	___xxtofl@arg+1,f
  1669     0FD1  307F               	movlw	127
  1670     0FD2  05FC               	andwf	___xxtofl@arg+2,f
  1671     0FD3  30FF               	movlw	255
  1672     0FD4  05FD               	andwf	___xxtofl@arg+3,f
  1673     0FD5                     i1l631:
  1674     0FD5  1003               	clrc
  1675     0FD6  0CF9               	rrf	___xxtofl@exp,f
  1676     0FD7                     i1l1918:
  1677     0FD7  0879               	movf	___xxtofl@exp,w
  1678     0FD8  00F4               	movwf	??___xxtofl
  1679     0FD9  01F5               	clrf	??___xxtofl+1
  1680     0FDA  01F6               	clrf	??___xxtofl+2
  1681     0FDB  01F7               	clrf	??___xxtofl+3
  1682     0FDC  3018               	movlw	24
  1683     0FDD                     u283_25:
  1684     0FDD  1003               	clrc
  1685     0FDE  0DF4               	rlf	??___xxtofl,f
  1686     0FDF  0DF5               	rlf	??___xxtofl+1,f
  1687     0FE0  0DF6               	rlf	??___xxtofl+2,f
  1688     0FE1  0DF7               	rlf	??___xxtofl+3,f
  1689     0FE2                     u283_20:
  1690     0FE2  3EFF               	addlw	-1
  1691     0FE3  1D03               	skipz
  1692     0FE4  2FDD               	goto	u283_25
  1693     0FE5  0874               	movf	??___xxtofl,w
  1694     0FE6  04FA               	iorwf	___xxtofl@arg,f
  1695     0FE7  0875               	movf	??___xxtofl+1,w
  1696     0FE8  04FB               	iorwf	___xxtofl@arg+1,f
  1697     0FE9  0876               	movf	??___xxtofl+2,w
  1698     0FEA  04FC               	iorwf	___xxtofl@arg+2,f
  1699     0FEB  0877               	movf	??___xxtofl+3,w
  1700     0FEC  04FD               	iorwf	___xxtofl@arg+3,f
  1701     0FED                     i1l1920:
  1702     0FED  0878               	movf	___xxtofl@sign,w
  1703     0FEE  1903               	btfsc	3,2
  1704     0FEF  2FF1               	goto	u284_21
  1705     0FF0  2FF2               	goto	u284_20
  1706     0FF1                     u284_21:
  1707     0FF1  2FF7               	goto	i1l1926
  1708     0FF2                     u284_20:
  1709     0FF2                     i1l1922:
  1710     0FF2  1FF3               	btfss	___xxtofl@val+3,7
  1711     0FF3  2FF5               	goto	u285_21
  1712     0FF4  2FF6               	goto	u285_20
  1713     0FF5                     u285_21:
  1714     0FF5  2FF7               	goto	i1l1926
  1715     0FF6                     u285_20:
  1716     0FF6                     i1l1924:
  1717     0FF6  17FD               	bsf	___xxtofl@arg+3,7
  1718     0FF7                     i1l1926:
  1719     0FF7  087D               	movf	___xxtofl@arg+3,w
  1720     0FF8  00F3               	movwf	?___xxtofl+3
  1721     0FF9  087C               	movf	___xxtofl@arg+2,w
  1722     0FFA  00F2               	movwf	?___xxtofl+2
  1723     0FFB  087B               	movf	___xxtofl@arg+1,w
  1724     0FFC  00F1               	movwf	?___xxtofl+1
  1725     0FFD  087A               	movf	___xxtofl@arg,w
  1726     0FFE  00F0               	movwf	?___xxtofl
  1727     0FFF                     i1l619:
  1728     0FFF  0008               	return
  1729     1000                     __end_of___xxtofl:
  1730                           
  1731                           	psect	text7
  1732     0D5E                     __ptext7:	
  1733 ;; *************** function ___fltol *****************
  1734 ;; Defined at:
  1735 ;;		line 43 in file "C:\Program Files\Microchip\xc8\v2.40\pic\sources\c90\common\fltol.c"
  1736 ;; Parameters:    Size  Location     Type
  1737 ;;  f1              4   72[BANK0 ] unsigned char 
  1738 ;; Auto vars:     Size  Location     Type
  1739 ;;  exp1            1    1[BANK1 ] unsigned char 
  1740 ;;  sign1           1    0[BANK1 ] unsigned char 
  1741 ;; Return value:  Size  Location     Type
  1742 ;;                  4   72[BANK0 ] long 
  1743 ;; Registers used:
  1744 ;;		wreg, status,2, status,0
  1745 ;; Tracked objects:
  1746 ;;		On entry : 0/0
  1747 ;;		On exit  : 0/0
  1748 ;;		Unchanged: 0/0
  1749 ;; Data sizes:     COMMON   BANK0   BANK1   BANK3   BANK2
  1750 ;;      Params:         0       4       0       0       0
  1751 ;;      Locals:         0       0       2       0       0
  1752 ;;      Temps:          0       4       0       0       0
  1753 ;;      Totals:         0       8       2       0       0
  1754 ;;Total ram usage:       10 bytes
  1755 ;; Hardware stack levels used: 1
  1756 ;; This function calls:
  1757 ;;		Nothing
  1758 ;; This function is called by:
  1759 ;;		_map
  1760 ;; This function uses a non-reentrant model
  1761 ;;
  1762                           
  1763     0D5E                     ___fltol:	
  1764                           ;psect for function ___fltol
  1765                           
  1766     0D5E                     i1l1374:	
  1767                           ;incstack = 0
  1768                           ; Regs used in ___fltol: [wreg+status,2+status,0]
  1769                           
  1770     0D5E  1003               	clrc
  1771     0D5F  1283               	bcf	3,5	;RP0=0, select bank0
  1772     0D60  1303               	bcf	3,6	;RP1=0, select bank0
  1773     0D61  0D6A               	rlf	___fltol@f1+2,w
  1774     0D62  0D6B               	rlf	___fltol@f1+3,w
  1775     0D63  1683               	bsf	3,5	;RP0=1, select bank1
  1776     0D64  1303               	bcf	3,6	;RP1=0, select bank1
  1777     0D65  00A1               	movwf	___fltol@exp1^(0+128)
  1778     0D66  0821               	movf	___fltol@exp1^(0+128),w
  1779     0D67  1D03               	btfss	3,2
  1780     0D68  2D6A               	goto	u150_21
  1781     0D69  2D6B               	goto	u150_20
  1782     0D6A                     u150_21:
  1783     0D6A  2D76               	goto	i1l1380
  1784     0D6B                     u150_20:
  1785     0D6B                     i1l1376:
  1786     0D6B  3000               	movlw	0
  1787     0D6C  1283               	bcf	3,5	;RP0=0, select bank0
  1788     0D6D  1303               	bcf	3,6	;RP1=0, select bank0
  1789     0D6E  00EB               	movwf	?___fltol+3
  1790     0D6F  3000               	movlw	0
  1791     0D70  00EA               	movwf	?___fltol+2
  1792     0D71  3000               	movlw	0
  1793     0D72  00E9               	movwf	?___fltol+1
  1794     0D73  3000               	movlw	0
  1795     0D74  00E8               	movwf	?___fltol
  1796     0D75  2DEB               	goto	i1l370
  1797     0D76                     i1l1380:
  1798     0D76  1283               	bcf	3,5	;RP0=0, select bank0
  1799     0D77  1303               	bcf	3,6	;RP1=0, select bank0
  1800     0D78  0868               	movf	___fltol@f1,w
  1801     0D79  00EC               	movwf	??___fltol
  1802     0D7A  0869               	movf	___fltol@f1+1,w
  1803     0D7B  00ED               	movwf	??___fltol+1
  1804     0D7C  086A               	movf	___fltol@f1+2,w
  1805     0D7D  00EE               	movwf	??___fltol+2
  1806     0D7E  086B               	movf	___fltol@f1+3,w
  1807     0D7F  00EF               	movwf	??___fltol+3
  1808     0D80  301F               	movlw	31
  1809     0D81                     u151_25:
  1810     0D81  1003               	clrc
  1811     0D82  0CEF               	rrf	??___fltol+3,f
  1812     0D83  0CEE               	rrf	??___fltol+2,f
  1813     0D84  0CED               	rrf	??___fltol+1,f
  1814     0D85  0CEC               	rrf	??___fltol,f
  1815     0D86                     u151_20:
  1816     0D86  3EFF               	addlw	-1
  1817     0D87  1D03               	skipz
  1818     0D88  2D81               	goto	u151_25
  1819     0D89  086C               	movf	??___fltol,w
  1820     0D8A  1683               	bsf	3,5	;RP0=1, select bank1
  1821     0D8B  1303               	bcf	3,6	;RP1=0, select bank1
  1822     0D8C  00A0               	movwf	___fltol@sign1^(0+128)
  1823     0D8D                     i1l1382:
  1824     0D8D  1283               	bcf	3,5	;RP0=0, select bank0
  1825     0D8E  1303               	bcf	3,6	;RP1=0, select bank0
  1826     0D8F  17EA               	bsf	___fltol@f1+2,7
  1827     0D90                     i1l1384:
  1828     0D90  30FF               	movlw	255
  1829     0D91  05E8               	andwf	___fltol@f1,f
  1830     0D92  30FF               	movlw	255
  1831     0D93  05E9               	andwf	___fltol@f1+1,f
  1832     0D94  30FF               	movlw	255
  1833     0D95  05EA               	andwf	___fltol@f1+2,f
  1834     0D96  3000               	movlw	0
  1835     0D97  05EB               	andwf	___fltol@f1+3,f
  1836     0D98                     i1l1386:
  1837     0D98  3096               	movlw	150
  1838     0D99  1683               	bsf	3,5	;RP0=1, select bank1
  1839     0D9A  1303               	bcf	3,6	;RP1=0, select bank1
  1840     0D9B  02A1               	subwf	___fltol@exp1^(0+128),f
  1841     0D9C                     i1l1388:
  1842     0D9C  1FA1               	btfss	___fltol@exp1^(0+128),7
  1843     0D9D  2D9F               	goto	u152_21
  1844     0D9E  2DA0               	goto	u152_20
  1845     0D9F                     u152_21:
  1846     0D9F  2DBE               	goto	i1l1398
  1847     0DA0                     u152_20:
  1848     0DA0                     i1l1390:
  1849     0DA0  0821               	movf	___fltol@exp1^(0+128),w
  1850     0DA1  3A80               	xorlw	128
  1851     0DA2  3E97               	addlw	151
  1852     0DA3  1803               	skipnc
  1853     0DA4  2DA6               	goto	u153_21
  1854     0DA5  2DA7               	goto	u153_20
  1855     0DA6                     u153_21:
  1856     0DA6  2DA8               	goto	i1l1396
  1857     0DA7                     u153_20:
  1858     0DA7  2D6B               	goto	i1l1376
  1859     0DA8                     i1l1396:
  1860     0DA8  3001               	movlw	1
  1861     0DA9                     u154_25:
  1862     0DA9  1003               	clrc
  1863     0DAA  1283               	bcf	3,5	;RP0=0, select bank0
  1864     0DAB  1303               	bcf	3,6	;RP1=0, select bank0
  1865     0DAC  0CEB               	rrf	___fltol@f1+3,f
  1866     0DAD  0CEA               	rrf	___fltol@f1+2,f
  1867     0DAE  0CE9               	rrf	___fltol@f1+1,f
  1868     0DAF  0CE8               	rrf	___fltol@f1,f
  1869     0DB0  3EFF               	addlw	-1
  1870     0DB1  1D03               	skipz
  1871     0DB2  2DA9               	goto	u154_25
  1872     0DB3  3001               	movlw	1
  1873     0DB4  00EC               	movwf	??___fltol
  1874     0DB5  086C               	movf	??___fltol,w
  1875     0DB6  1683               	bsf	3,5	;RP0=1, select bank1
  1876     0DB7  1303               	bcf	3,6	;RP1=0, select bank1
  1877     0DB8  07A1               	addwf	___fltol@exp1^(0+128),f
  1878     0DB9  1D03               	btfss	3,2
  1879     0DBA  2DBC               	goto	u155_21
  1880     0DBB  2DBD               	goto	u155_20
  1881     0DBC                     u155_21:
  1882     0DBC  2DA8               	goto	i1l1396
  1883     0DBD                     u155_20:
  1884     0DBD  2DD9               	goto	i1l1406
  1885     0DBE                     i1l1398:
  1886     0DBE  3020               	movlw	32
  1887     0DBF  0221               	subwf	___fltol@exp1^(0+128),w
  1888     0DC0  1C03               	skipc
  1889     0DC1  2DC3               	goto	u156_21
  1890     0DC2  2DC4               	goto	u156_20
  1891     0DC3                     u156_21:
  1892     0DC3  2DD4               	goto	i1l377
  1893     0DC4                     u156_20:
  1894     0DC4  2D6B               	goto	i1l1376
  1895     0DC5                     i1l1404:
  1896     0DC5  3001               	movlw	1
  1897     0DC6  1283               	bcf	3,5	;RP0=0, select bank0
  1898     0DC7  1303               	bcf	3,6	;RP1=0, select bank0
  1899     0DC8  00EC               	movwf	??___fltol
  1900     0DC9                     u157_25:
  1901     0DC9  1003               	clrc
  1902     0DCA  0DE8               	rlf	___fltol@f1,f
  1903     0DCB  0DE9               	rlf	___fltol@f1+1,f
  1904     0DCC  0DEA               	rlf	___fltol@f1+2,f
  1905     0DCD  0DEB               	rlf	___fltol@f1+3,f
  1906     0DCE  0BEC               	decfsz	??___fltol,f
  1907     0DCF  2DC9               	goto	u157_25
  1908     0DD0  3001               	movlw	1
  1909     0DD1  1683               	bsf	3,5	;RP0=1, select bank1
  1910     0DD2  1303               	bcf	3,6	;RP1=0, select bank1
  1911     0DD3  02A1               	subwf	___fltol@exp1^(0+128),f
  1912     0DD4                     i1l377:
  1913     0DD4  0821               	movf	___fltol@exp1^(0+128),w
  1914     0DD5  1D03               	btfss	3,2
  1915     0DD6  2DD8               	goto	u158_21
  1916     0DD7  2DD9               	goto	u158_20
  1917     0DD8                     u158_21:
  1918     0DD8  2DC5               	goto	i1l1404
  1919     0DD9                     u158_20:
  1920     0DD9                     i1l1406:
  1921     0DD9  0820               	movf	___fltol@sign1^(0+128),w
  1922     0DDA  1903               	btfsc	3,2
  1923     0DDB  2DDD               	goto	u159_21
  1924     0DDC  2DDE               	goto	u159_20
  1925     0DDD                     u159_21:
  1926     0DDD  2DEB               	goto	i1l380
  1927     0DDE                     u159_20:
  1928     0DDE                     i1l1408:
  1929     0DDE  1283               	bcf	3,5	;RP0=0, select bank0
  1930     0DDF  1303               	bcf	3,6	;RP1=0, select bank0
  1931     0DE0  09E8               	comf	___fltol@f1,f
  1932     0DE1  09E9               	comf	___fltol@f1+1,f
  1933     0DE2  09EA               	comf	___fltol@f1+2,f
  1934     0DE3  09EB               	comf	___fltol@f1+3,f
  1935     0DE4  0AE8               	incf	___fltol@f1,f
  1936     0DE5  1903               	skipnz
  1937     0DE6  0AE9               	incf	___fltol@f1+1,f
  1938     0DE7  1903               	skipnz
  1939     0DE8  0AEA               	incf	___fltol@f1+2,f
  1940     0DE9  1903               	skipnz
  1941     0DEA  0AEB               	incf	___fltol@f1+3,f
  1942     0DEB                     i1l380:
  1943     0DEB                     i1l370:
  1944     0DEB  0008               	return
  1945     0DEC                     __end_of___fltol:
  1946                           
  1947                           	psect	text8
  1948     001D                     __ptext8:	
  1949 ;; *************** function ___flmul *****************
  1950 ;; Defined at:
  1951 ;;		line 8 in file "C:\Program Files\Microchip\xc8\v2.40\pic\sources\c90\common\sprcmul.c"
  1952 ;; Parameters:    Size  Location     Type
  1953 ;;  b               4   26[BANK0 ] long 
  1954 ;;  a               4   30[BANK0 ] long 
  1955 ;; Auto vars:     Size  Location     Type
  1956 ;;  prod            4   46[BANK0 ] struct .
  1957 ;;  grs             4   40[BANK0 ] unsigned long 
  1958 ;;  temp            2   50[BANK0 ] struct .
  1959 ;;  bexp            1   45[BANK0 ] unsigned char 
  1960 ;;  aexp            1   44[BANK0 ] unsigned char 
  1961 ;;  sign            1   39[BANK0 ] unsigned char 
  1962 ;; Return value:  Size  Location     Type
  1963 ;;                  4   26[BANK0 ] unsigned char 
  1964 ;; Registers used:
  1965 ;;		wreg, status,2, status,0, btemp+1, pclath, cstack
  1966 ;; Tracked objects:
  1967 ;;		On entry : 0/0
  1968 ;;		On exit  : 0/0
  1969 ;;		Unchanged: 0/0
  1970 ;; Data sizes:     COMMON   BANK0   BANK1   BANK3   BANK2
  1971 ;;      Params:         0       8       0       0       0
  1972 ;;      Locals:         0      13       0       0       0
  1973 ;;      Temps:          0       5       0       0       0
  1974 ;;      Totals:         0      26       0       0       0
  1975 ;;Total ram usage:       26 bytes
  1976 ;; Hardware stack levels used: 1
  1977 ;; Hardware stack levels required when called: 1
  1978 ;; This function calls:
  1979 ;;		__Umul8_16
  1980 ;; This function is called by:
  1981 ;;		_map
  1982 ;; This function uses a non-reentrant model
  1983 ;;
  1984                           
  1985     001D                     ___flmul:	
  1986                           ;psect for function ___flmul
  1987                           
  1988     001D                     i1l1746:	
  1989                           ;incstack = 0
  1990                           ; Regs used in ___flmul: [wreg+status,2+status,0+btemp+1+pclath+cstack]
  1991                           
  1992     001D  1283               	bcf	3,5	;RP0=0, select bank0
  1993     001E  1303               	bcf	3,6	;RP1=0, select bank0
  1994     001F  083D               	movf	___flmul@b+3,w
  1995     0020  3980               	andlw	128
  1996     0021  00C7               	movwf	___flmul@sign
  1997     0022                     i1l1748:
  1998     0022  083D               	movf	___flmul@b+3,w
  1999     0023  00C2               	movwf	??___flmul
  2000     0024  0742               	addwf	??___flmul,w
  2001     0025  00CD               	movwf	___flmul@bexp
  2002     0026                     i1l1750:
  2003     0026  1FBC               	btfss	___flmul@b+2,7
  2004     0027  2829               	goto	u235_21
  2005     0028  282A               	goto	u235_20
  2006     0029                     u235_21:
  2007     0029  282B               	goto	i1l1754
  2008     002A                     u235_20:
  2009     002A                     i1l1752:
  2010     002A  144D               	bsf	___flmul@bexp,0
  2011     002B                     i1l1754:
  2012     002B  084D               	movf	___flmul@bexp,w
  2013     002C  1903               	btfsc	3,2
  2014     002D  282F               	goto	u236_21
  2015     002E  2830               	goto	u236_20
  2016     002F                     u236_21:
  2017     002F  283F               	goto	i1l1762
  2018     0030                     u236_20:
  2019     0030                     i1l1756:
  2020     0030  0A4D               	incf	___flmul@bexp,w
  2021     0031  1D03               	btfss	3,2
  2022     0032  2834               	goto	u237_21
  2023     0033  2835               	goto	u237_20
  2024     0034                     u237_21:
  2025     0034  283D               	goto	i1l1760
  2026     0035                     u237_20:
  2027     0035                     i1l1758:
  2028     0035  3000               	movlw	0
  2029     0036  00BD               	movwf	___flmul@b+3
  2030     0037  3000               	movlw	0
  2031     0038  00BC               	movwf	___flmul@b+2
  2032     0039  3000               	movlw	0
  2033     003A  00BB               	movwf	___flmul@b+1
  2034     003B  3000               	movlw	0
  2035     003C  00BA               	movwf	___flmul@b
  2036     003D                     i1l1760:
  2037     003D  17BC               	bsf	___flmul@b+2,7
  2038     003E  2847               	goto	i1l1764
  2039     003F                     i1l1762:
  2040     003F  3000               	movlw	0
  2041     0040  00BD               	movwf	___flmul@b+3
  2042     0041  3000               	movlw	0
  2043     0042  00BC               	movwf	___flmul@b+2
  2044     0043  3000               	movlw	0
  2045     0044  00BB               	movwf	___flmul@b+1
  2046     0045  3000               	movlw	0
  2047     0046  00BA               	movwf	___flmul@b
  2048     0047                     i1l1764:
  2049     0047  0841               	movf	___flmul@a+3,w
  2050     0048  3980               	andlw	128
  2051     0049  00C2               	movwf	??___flmul
  2052     004A  0842               	movf	??___flmul,w
  2053     004B  06C7               	xorwf	___flmul@sign,f
  2054     004C                     i1l1766:
  2055     004C  0841               	movf	___flmul@a+3,w
  2056     004D  00C2               	movwf	??___flmul
  2057     004E  0742               	addwf	??___flmul,w
  2058     004F  00CC               	movwf	___flmul@aexp
  2059     0050                     i1l1768:
  2060     0050  1FC0               	btfss	___flmul@a+2,7
  2061     0051  2853               	goto	u238_21
  2062     0052  2854               	goto	u238_20
  2063     0053                     u238_21:
  2064     0053  2855               	goto	i1l1772
  2065     0054                     u238_20:
  2066     0054                     i1l1770:
  2067     0054  144C               	bsf	___flmul@aexp,0
  2068     0055                     i1l1772:
  2069     0055  084C               	movf	___flmul@aexp,w
  2070     0056  1903               	btfsc	3,2
  2071     0057  2859               	goto	u239_21
  2072     0058  285A               	goto	u239_20
  2073     0059                     u239_21:
  2074     0059  2869               	goto	i1l1780
  2075     005A                     u239_20:
  2076     005A                     i1l1774:
  2077     005A  0A4C               	incf	___flmul@aexp,w
  2078     005B  1D03               	btfss	3,2
  2079     005C  285E               	goto	u240_21
  2080     005D  285F               	goto	u240_20
  2081     005E                     u240_21:
  2082     005E  2867               	goto	i1l1778
  2083     005F                     u240_20:
  2084     005F                     i1l1776:
  2085     005F  3000               	movlw	0
  2086     0060  00C1               	movwf	___flmul@a+3
  2087     0061  3000               	movlw	0
  2088     0062  00C0               	movwf	___flmul@a+2
  2089     0063  3000               	movlw	0
  2090     0064  00BF               	movwf	___flmul@a+1
  2091     0065  3000               	movlw	0
  2092     0066  00BE               	movwf	___flmul@a
  2093     0067                     i1l1778:
  2094     0067  17C0               	bsf	___flmul@a+2,7
  2095     0068  2871               	goto	i1l1782
  2096     0069                     i1l1780:
  2097     0069  3000               	movlw	0
  2098     006A  00C1               	movwf	___flmul@a+3
  2099     006B  3000               	movlw	0
  2100     006C  00C0               	movwf	___flmul@a+2
  2101     006D  3000               	movlw	0
  2102     006E  00BF               	movwf	___flmul@a+1
  2103     006F  3000               	movlw	0
  2104     0070  00BE               	movwf	___flmul@a
  2105     0071                     i1l1782:
  2106     0071  084C               	movf	___flmul@aexp,w
  2107     0072  1903               	btfsc	3,2
  2108     0073  2875               	goto	u241_21
  2109     0074  2876               	goto	u241_20
  2110     0075                     u241_21:
  2111     0075  287B               	goto	i1l1786
  2112     0076                     u241_20:
  2113     0076                     i1l1784:
  2114     0076  084D               	movf	___flmul@bexp,w
  2115     0077  1D03               	btfss	3,2
  2116     0078  287A               	goto	u242_21
  2117     0079  287B               	goto	u242_20
  2118     007A                     u242_21:
  2119     007A  2884               	goto	i1l1790
  2120     007B                     u242_20:
  2121     007B                     i1l1786:
  2122     007B  3000               	movlw	0
  2123     007C  00BD               	movwf	?___flmul+3
  2124     007D  3000               	movlw	0
  2125     007E  00BC               	movwf	?___flmul+2
  2126     007F  3000               	movlw	0
  2127     0080  00BB               	movwf	?___flmul+1
  2128     0081  3000               	movlw	0
  2129     0082  00BA               	movwf	?___flmul
  2130     0083  2B61               	goto	i1l573
  2131     0084                     i1l1790:
  2132     0084  083A               	movf	___flmul@b,w
  2133     0085  00F0               	movwf	__Umul8_16@multiplicand
  2134     0086  0840               	movf	___flmul@a+2,w
  2135     0087  120A  158A  250B  120A  118A  	fcall	__Umul8_16
  2136     008C  0871               	movf	?__Umul8_16+1,w
  2137     008D  1283               	bcf	3,5	;RP0=0, select bank0
  2138     008E  1303               	bcf	3,6	;RP1=0, select bank0
  2139     008F  00D3               	movwf	___flmul@temp+1
  2140     0090  0870               	movf	?__Umul8_16,w
  2141     0091  00D2               	movwf	___flmul@temp
  2142     0092                     i1l1792:
  2143     0092  0852               	movf	___flmul@temp,w
  2144     0093  00C2               	movwf	??___flmul
  2145     0094  01C3               	clrf	??___flmul+1
  2146     0095  01C4               	clrf	??___flmul+2
  2147     0096  01C5               	clrf	??___flmul+3
  2148     0097  0845               	movf	??___flmul+3,w
  2149     0098  00CB               	movwf	___flmul@grs+3
  2150     0099  0844               	movf	??___flmul+2,w
  2151     009A  00CA               	movwf	___flmul@grs+2
  2152     009B  0843               	movf	??___flmul+1,w
  2153     009C  00C9               	movwf	___flmul@grs+1
  2154     009D  0842               	movf	??___flmul,w
  2155     009E  00C8               	movwf	___flmul@grs
  2156     009F                     i1l1794:
  2157     009F  0853               	movf	___flmul@temp+1,w
  2158     00A0  00C2               	movwf	??___flmul
  2159     00A1  01C3               	clrf	??___flmul+1
  2160     00A2  01C4               	clrf	??___flmul+2
  2161     00A3  01C5               	clrf	??___flmul+3
  2162     00A4  0845               	movf	??___flmul+3,w
  2163     00A5  00D1               	movwf	___flmul@prod+3
  2164     00A6  0844               	movf	??___flmul+2,w
  2165     00A7  00D0               	movwf	___flmul@prod+2
  2166     00A8  0843               	movf	??___flmul+1,w
  2167     00A9  00CF               	movwf	___flmul@prod+1
  2168     00AA  0842               	movf	??___flmul,w
  2169     00AB  00CE               	movwf	___flmul@prod
  2170     00AC  083B               	movf	___flmul@b+1,w
  2171     00AD  00F0               	movwf	__Umul8_16@multiplicand
  2172     00AE  083F               	movf	___flmul@a+1,w
  2173     00AF  120A  158A  250B  120A  118A  	fcall	__Umul8_16
  2174     00B4  0871               	movf	?__Umul8_16+1,w
  2175     00B5  1283               	bcf	3,5	;RP0=0, select bank0
  2176     00B6  1303               	bcf	3,6	;RP1=0, select bank0
  2177     00B7  00D3               	movwf	___flmul@temp+1
  2178     00B8  0870               	movf	?__Umul8_16,w
  2179     00B9  00D2               	movwf	___flmul@temp
  2180     00BA                     i1l1796:
  2181     00BA  0852               	movf	___flmul@temp,w
  2182     00BB  00C2               	movwf	??___flmul
  2183     00BC  01C3               	clrf	??___flmul+1
  2184     00BD  01C4               	clrf	??___flmul+2
  2185     00BE  01C5               	clrf	??___flmul+3
  2186     00BF  0842               	movf	??___flmul,w
  2187     00C0  07C8               	addwf	___flmul@grs,f
  2188     00C1  0843               	movf	??___flmul+1,w
  2189     00C2  1103               	clrz
  2190     00C3  1803               	skipnc
  2191     00C4  3E01               	addlw	1
  2192     00C5  1903               	skipnz
  2193     00C6  28C8               	goto	u243_21
  2194     00C7  07C9               	addwf	___flmul@grs+1,f
  2195     00C8                     u243_21:
  2196     00C8  0844               	movf	??___flmul+2,w
  2197     00C9  1103               	clrz
  2198     00CA  1803               	skipnc
  2199     00CB  3E01               	addlw	1
  2200     00CC  1903               	skipnz
  2201     00CD  28CF               	goto	u243_22
  2202     00CE  07CA               	addwf	___flmul@grs+2,f
  2203     00CF                     u243_22:
  2204     00CF  0845               	movf	??___flmul+3,w
  2205     00D0  1103               	clrz
  2206     00D1  1803               	skipnc
  2207     00D2  3E01               	addlw	1
  2208     00D3  1903               	skipnz
  2209     00D4  28D6               	goto	u243_23
  2210     00D5  07CB               	addwf	___flmul@grs+3,f
  2211     00D6                     u243_23:
  2212     00D6                     i1l1798:
  2213     00D6  0853               	movf	___flmul@temp+1,w
  2214     00D7  00C2               	movwf	??___flmul
  2215     00D8  01C3               	clrf	??___flmul+1
  2216     00D9  01C4               	clrf	??___flmul+2
  2217     00DA  01C5               	clrf	??___flmul+3
  2218     00DB  0842               	movf	??___flmul,w
  2219     00DC  07CE               	addwf	___flmul@prod,f
  2220     00DD  0843               	movf	??___flmul+1,w
  2221     00DE  1103               	clrz
  2222     00DF  1803               	skipnc
  2223     00E0  3E01               	addlw	1
  2224     00E1  1903               	skipnz
  2225     00E2  28E4               	goto	u244_21
  2226     00E3  07CF               	addwf	___flmul@prod+1,f
  2227     00E4                     u244_21:
  2228     00E4  0844               	movf	??___flmul+2,w
  2229     00E5  1103               	clrz
  2230     00E6  1803               	skipnc
  2231     00E7  3E01               	addlw	1
  2232     00E8  1903               	skipnz
  2233     00E9  28EB               	goto	u244_22
  2234     00EA  07D0               	addwf	___flmul@prod+2,f
  2235     00EB                     u244_22:
  2236     00EB  0845               	movf	??___flmul+3,w
  2237     00EC  1103               	clrz
  2238     00ED  1803               	skipnc
  2239     00EE  3E01               	addlw	1
  2240     00EF  1903               	skipnz
  2241     00F0  28F2               	goto	u244_23
  2242     00F1  07D1               	addwf	___flmul@prod+3,f
  2243     00F2                     u244_23:
  2244     00F2  083C               	movf	___flmul@b+2,w
  2245     00F3  00F0               	movwf	__Umul8_16@multiplicand
  2246     00F4  083E               	movf	___flmul@a,w
  2247     00F5  120A  158A  250B  120A  118A  	fcall	__Umul8_16
  2248     00FA  0871               	movf	?__Umul8_16+1,w
  2249     00FB  1283               	bcf	3,5	;RP0=0, select bank0
  2250     00FC  1303               	bcf	3,6	;RP1=0, select bank0
  2251     00FD  00D3               	movwf	___flmul@temp+1
  2252     00FE  0870               	movf	?__Umul8_16,w
  2253     00FF  00D2               	movwf	___flmul@temp
  2254     0100                     i1l1800:
  2255     0100  0852               	movf	___flmul@temp,w
  2256     0101  00C2               	movwf	??___flmul
  2257     0102  01C3               	clrf	??___flmul+1
  2258     0103  01C4               	clrf	??___flmul+2
  2259     0104  01C5               	clrf	??___flmul+3
  2260     0105  0842               	movf	??___flmul,w
  2261     0106  07C8               	addwf	___flmul@grs,f
  2262     0107  0843               	movf	??___flmul+1,w
  2263     0108  1103               	clrz
  2264     0109  1803               	skipnc
  2265     010A  3E01               	addlw	1
  2266     010B  1903               	skipnz
  2267     010C  290E               	goto	u245_21
  2268     010D  07C9               	addwf	___flmul@grs+1,f
  2269     010E                     u245_21:
  2270     010E  0844               	movf	??___flmul+2,w
  2271     010F  1103               	clrz
  2272     0110  1803               	skipnc
  2273     0111  3E01               	addlw	1
  2274     0112  1903               	skipnz
  2275     0113  2915               	goto	u245_22
  2276     0114  07CA               	addwf	___flmul@grs+2,f
  2277     0115                     u245_22:
  2278     0115  0845               	movf	??___flmul+3,w
  2279     0116  1103               	clrz
  2280     0117  1803               	skipnc
  2281     0118  3E01               	addlw	1
  2282     0119  1903               	skipnz
  2283     011A  291C               	goto	u245_23
  2284     011B  07CB               	addwf	___flmul@grs+3,f
  2285     011C                     u245_23:
  2286     011C                     i1l1802:
  2287     011C  0853               	movf	___flmul@temp+1,w
  2288     011D  00C2               	movwf	??___flmul
  2289     011E  01C3               	clrf	??___flmul+1
  2290     011F  01C4               	clrf	??___flmul+2
  2291     0120  01C5               	clrf	??___flmul+3
  2292     0121  0842               	movf	??___flmul,w
  2293     0122  07CE               	addwf	___flmul@prod,f
  2294     0123  0843               	movf	??___flmul+1,w
  2295     0124  1103               	clrz
  2296     0125  1803               	skipnc
  2297     0126  3E01               	addlw	1
  2298     0127  1903               	skipnz
  2299     0128  292A               	goto	u246_21
  2300     0129  07CF               	addwf	___flmul@prod+1,f
  2301     012A                     u246_21:
  2302     012A  0844               	movf	??___flmul+2,w
  2303     012B  1103               	clrz
  2304     012C  1803               	skipnc
  2305     012D  3E01               	addlw	1
  2306     012E  1903               	skipnz
  2307     012F  2931               	goto	u246_22
  2308     0130  07D0               	addwf	___flmul@prod+2,f
  2309     0131                     u246_22:
  2310     0131  0845               	movf	??___flmul+3,w
  2311     0132  1103               	clrz
  2312     0133  1803               	skipnc
  2313     0134  3E01               	addlw	1
  2314     0135  1903               	skipnz
  2315     0136  2938               	goto	u246_23
  2316     0137  07D1               	addwf	___flmul@prod+3,f
  2317     0138                     u246_23:
  2318     0138                     i1l1804:
  2319     0138  3008               	movlw	8
  2320     0139  00C2               	movwf	??___flmul
  2321     013A                     u247_25:
  2322     013A  1003               	clrc
  2323     013B  0DC8               	rlf	___flmul@grs,f
  2324     013C  0DC9               	rlf	___flmul@grs+1,f
  2325     013D  0DCA               	rlf	___flmul@grs+2,f
  2326     013E  0DCB               	rlf	___flmul@grs+3,f
  2327     013F  0BC2               	decfsz	??___flmul,f
  2328     0140  293A               	goto	u247_25
  2329     0141                     i1l1806:
  2330     0141  083B               	movf	___flmul@b+1,w
  2331     0142  00F0               	movwf	__Umul8_16@multiplicand
  2332     0143  083E               	movf	___flmul@a,w
  2333     0144  120A  158A  250B  120A  118A  	fcall	__Umul8_16
  2334     0149  0871               	movf	?__Umul8_16+1,w
  2335     014A  1283               	bcf	3,5	;RP0=0, select bank0
  2336     014B  1303               	bcf	3,6	;RP1=0, select bank0
  2337     014C  00D3               	movwf	___flmul@temp+1
  2338     014D  0870               	movf	?__Umul8_16,w
  2339     014E  00D2               	movwf	___flmul@temp
  2340     014F                     i1l1808:
  2341     014F  0852               	movf	___flmul@temp,w
  2342     0150  00C2               	movwf	??___flmul
  2343     0151  0853               	movf	___flmul@temp+1,w
  2344     0152  00C3               	movwf	??___flmul+1
  2345     0153  01C4               	clrf	??___flmul+2
  2346     0154  01C5               	clrf	??___flmul+3
  2347     0155  0842               	movf	??___flmul,w
  2348     0156  07C8               	addwf	___flmul@grs,f
  2349     0157  0843               	movf	??___flmul+1,w
  2350     0158  1103               	clrz
  2351     0159  1803               	skipnc
  2352     015A  3E01               	addlw	1
  2353     015B  1903               	skipnz
  2354     015C  295E               	goto	u248_21
  2355     015D  07C9               	addwf	___flmul@grs+1,f
  2356     015E                     u248_21:
  2357     015E  0844               	movf	??___flmul+2,w
  2358     015F  1103               	clrz
  2359     0160  1803               	skipnc
  2360     0161  3E01               	addlw	1
  2361     0162  1903               	skipnz
  2362     0163  2965               	goto	u248_22
  2363     0164  07CA               	addwf	___flmul@grs+2,f
  2364     0165                     u248_22:
  2365     0165  0845               	movf	??___flmul+3,w
  2366     0166  1103               	clrz
  2367     0167  1803               	skipnc
  2368     0168  3E01               	addlw	1
  2369     0169  1903               	skipnz
  2370     016A  296C               	goto	u248_23
  2371     016B  07CB               	addwf	___flmul@grs+3,f
  2372     016C                     u248_23:
  2373     016C                     i1l1810:
  2374     016C  083A               	movf	___flmul@b,w
  2375     016D  00F0               	movwf	__Umul8_16@multiplicand
  2376     016E  083F               	movf	___flmul@a+1,w
  2377     016F  120A  158A  250B  120A  118A  	fcall	__Umul8_16
  2378     0174  0871               	movf	?__Umul8_16+1,w
  2379     0175  1283               	bcf	3,5	;RP0=0, select bank0
  2380     0176  1303               	bcf	3,6	;RP1=0, select bank0
  2381     0177  00D3               	movwf	___flmul@temp+1
  2382     0178  0870               	movf	?__Umul8_16,w
  2383     0179  00D2               	movwf	___flmul@temp
  2384     017A                     i1l1812:
  2385     017A  0852               	movf	___flmul@temp,w
  2386     017B  00C2               	movwf	??___flmul
  2387     017C  0853               	movf	___flmul@temp+1,w
  2388     017D  00C3               	movwf	??___flmul+1
  2389     017E  01C4               	clrf	??___flmul+2
  2390     017F  01C5               	clrf	??___flmul+3
  2391     0180  0842               	movf	??___flmul,w
  2392     0181  07C8               	addwf	___flmul@grs,f
  2393     0182  0843               	movf	??___flmul+1,w
  2394     0183  1103               	clrz
  2395     0184  1803               	skipnc
  2396     0185  3E01               	addlw	1
  2397     0186  1903               	skipnz
  2398     0187  2989               	goto	u249_21
  2399     0188  07C9               	addwf	___flmul@grs+1,f
  2400     0189                     u249_21:
  2401     0189  0844               	movf	??___flmul+2,w
  2402     018A  1103               	clrz
  2403     018B  1803               	skipnc
  2404     018C  3E01               	addlw	1
  2405     018D  1903               	skipnz
  2406     018E  2990               	goto	u249_22
  2407     018F  07CA               	addwf	___flmul@grs+2,f
  2408     0190                     u249_22:
  2409     0190  0845               	movf	??___flmul+3,w
  2410     0191  1103               	clrz
  2411     0192  1803               	skipnc
  2412     0193  3E01               	addlw	1
  2413     0194  1903               	skipnz
  2414     0195  2997               	goto	u249_23
  2415     0196  07CB               	addwf	___flmul@grs+3,f
  2416     0197                     u249_23:
  2417     0197                     i1l1814:
  2418     0197  3008               	movlw	8
  2419     0198  00C2               	movwf	??___flmul
  2420     0199                     u250_25:
  2421     0199  1003               	clrc
  2422     019A  0DC8               	rlf	___flmul@grs,f
  2423     019B  0DC9               	rlf	___flmul@grs+1,f
  2424     019C  0DCA               	rlf	___flmul@grs+2,f
  2425     019D  0DCB               	rlf	___flmul@grs+3,f
  2426     019E  0BC2               	decfsz	??___flmul,f
  2427     019F  2999               	goto	u250_25
  2428     01A0  083A               	movf	___flmul@b,w
  2429     01A1  00F0               	movwf	__Umul8_16@multiplicand
  2430     01A2  083E               	movf	___flmul@a,w
  2431     01A3  120A  158A  250B  120A  118A  	fcall	__Umul8_16
  2432     01A8  0871               	movf	?__Umul8_16+1,w
  2433     01A9  1283               	bcf	3,5	;RP0=0, select bank0
  2434     01AA  1303               	bcf	3,6	;RP1=0, select bank0
  2435     01AB  00D3               	movwf	___flmul@temp+1
  2436     01AC  0870               	movf	?__Umul8_16,w
  2437     01AD  00D2               	movwf	___flmul@temp
  2438     01AE                     i1l1816:
  2439     01AE  0852               	movf	___flmul@temp,w
  2440     01AF  00C2               	movwf	??___flmul
  2441     01B0  0853               	movf	___flmul@temp+1,w
  2442     01B1  00C3               	movwf	??___flmul+1
  2443     01B2  01C4               	clrf	??___flmul+2
  2444     01B3  01C5               	clrf	??___flmul+3
  2445     01B4  0842               	movf	??___flmul,w
  2446     01B5  07C8               	addwf	___flmul@grs,f
  2447     01B6  0843               	movf	??___flmul+1,w
  2448     01B7  1103               	clrz
  2449     01B8  1803               	skipnc
  2450     01B9  3E01               	addlw	1
  2451     01BA  1903               	skipnz
  2452     01BB  29BD               	goto	u251_21
  2453     01BC  07C9               	addwf	___flmul@grs+1,f
  2454     01BD                     u251_21:
  2455     01BD  0844               	movf	??___flmul+2,w
  2456     01BE  1103               	clrz
  2457     01BF  1803               	skipnc
  2458     01C0  3E01               	addlw	1
  2459     01C1  1903               	skipnz
  2460     01C2  29C4               	goto	u251_22
  2461     01C3  07CA               	addwf	___flmul@grs+2,f
  2462     01C4                     u251_22:
  2463     01C4  0845               	movf	??___flmul+3,w
  2464     01C5  1103               	clrz
  2465     01C6  1803               	skipnc
  2466     01C7  3E01               	addlw	1
  2467     01C8  1903               	skipnz
  2468     01C9  29CB               	goto	u251_23
  2469     01CA  07CB               	addwf	___flmul@grs+3,f
  2470     01CB                     u251_23:
  2471     01CB                     i1l1818:
  2472     01CB  083B               	movf	___flmul@b+1,w
  2473     01CC  00F0               	movwf	__Umul8_16@multiplicand
  2474     01CD  0840               	movf	___flmul@a+2,w
  2475     01CE  120A  158A  250B  120A  118A  	fcall	__Umul8_16
  2476     01D3  0871               	movf	?__Umul8_16+1,w
  2477     01D4  1283               	bcf	3,5	;RP0=0, select bank0
  2478     01D5  1303               	bcf	3,6	;RP1=0, select bank0
  2479     01D6  00D3               	movwf	___flmul@temp+1
  2480     01D7  0870               	movf	?__Umul8_16,w
  2481     01D8  00D2               	movwf	___flmul@temp
  2482     01D9  0852               	movf	___flmul@temp,w
  2483     01DA  00C2               	movwf	??___flmul
  2484     01DB  0853               	movf	___flmul@temp+1,w
  2485     01DC  00C3               	movwf	??___flmul+1
  2486     01DD  01C4               	clrf	??___flmul+2
  2487     01DE  01C5               	clrf	??___flmul+3
  2488     01DF  0842               	movf	??___flmul,w
  2489     01E0  07CE               	addwf	___flmul@prod,f
  2490     01E1  0843               	movf	??___flmul+1,w
  2491     01E2  1103               	clrz
  2492     01E3  1803               	skipnc
  2493     01E4  3E01               	addlw	1
  2494     01E5  1903               	skipnz
  2495     01E6  29E8               	goto	u252_21
  2496     01E7  07CF               	addwf	___flmul@prod+1,f
  2497     01E8                     u252_21:
  2498     01E8  0844               	movf	??___flmul+2,w
  2499     01E9  1103               	clrz
  2500     01EA  1803               	skipnc
  2501     01EB  3E01               	addlw	1
  2502     01EC  1903               	skipnz
  2503     01ED  29EF               	goto	u252_22
  2504     01EE  07D0               	addwf	___flmul@prod+2,f
  2505     01EF                     u252_22:
  2506     01EF  0845               	movf	??___flmul+3,w
  2507     01F0  1103               	clrz
  2508     01F1  1803               	skipnc
  2509     01F2  3E01               	addlw	1
  2510     01F3  1903               	skipnz
  2511     01F4  29F6               	goto	u252_23
  2512     01F5  07D1               	addwf	___flmul@prod+3,f
  2513     01F6                     u252_23:
  2514     01F6                     i1l1820:
  2515     01F6  083C               	movf	___flmul@b+2,w
  2516     01F7  00F0               	movwf	__Umul8_16@multiplicand
  2517     01F8  083F               	movf	___flmul@a+1,w
  2518     01F9  120A  158A  250B  120A  118A  	fcall	__Umul8_16
  2519     01FE  0871               	movf	?__Umul8_16+1,w
  2520     01FF  1283               	bcf	3,5	;RP0=0, select bank0
  2521     0200  1303               	bcf	3,6	;RP1=0, select bank0
  2522     0201  00D3               	movwf	___flmul@temp+1
  2523     0202  0870               	movf	?__Umul8_16,w
  2524     0203  00D2               	movwf	___flmul@temp
  2525     0204                     i1l1822:
  2526     0204  0852               	movf	___flmul@temp,w
  2527     0205  00C2               	movwf	??___flmul
  2528     0206  0853               	movf	___flmul@temp+1,w
  2529     0207  00C3               	movwf	??___flmul+1
  2530     0208  01C4               	clrf	??___flmul+2
  2531     0209  01C5               	clrf	??___flmul+3
  2532     020A  0842               	movf	??___flmul,w
  2533     020B  07CE               	addwf	___flmul@prod,f
  2534     020C  0843               	movf	??___flmul+1,w
  2535     020D  1103               	clrz
  2536     020E  1803               	skipnc
  2537     020F  3E01               	addlw	1
  2538     0210  1903               	skipnz
  2539     0211  2A13               	goto	u253_21
  2540     0212  07CF               	addwf	___flmul@prod+1,f
  2541     0213                     u253_21:
  2542     0213  0844               	movf	??___flmul+2,w
  2543     0214  1103               	clrz
  2544     0215  1803               	skipnc
  2545     0216  3E01               	addlw	1
  2546     0217  1903               	skipnz
  2547     0218  2A1A               	goto	u253_22
  2548     0219  07D0               	addwf	___flmul@prod+2,f
  2549     021A                     u253_22:
  2550     021A  0845               	movf	??___flmul+3,w
  2551     021B  1103               	clrz
  2552     021C  1803               	skipnc
  2553     021D  3E01               	addlw	1
  2554     021E  1903               	skipnz
  2555     021F  2A21               	goto	u253_23
  2556     0220  07D1               	addwf	___flmul@prod+3,f
  2557     0221                     u253_23:
  2558     0221  083C               	movf	___flmul@b+2,w
  2559     0222  00F0               	movwf	__Umul8_16@multiplicand
  2560     0223  0840               	movf	___flmul@a+2,w
  2561     0224  120A  158A  250B  120A  118A  	fcall	__Umul8_16
  2562     0229  0871               	movf	?__Umul8_16+1,w
  2563     022A  1283               	bcf	3,5	;RP0=0, select bank0
  2564     022B  1303               	bcf	3,6	;RP1=0, select bank0
  2565     022C  00D3               	movwf	___flmul@temp+1
  2566     022D  0870               	movf	?__Umul8_16,w
  2567     022E  00D2               	movwf	___flmul@temp
  2568     022F                     i1l1824:
  2569     022F  0852               	movf	___flmul@temp,w
  2570     0230  00C2               	movwf	??___flmul
  2571     0231  0853               	movf	___flmul@temp+1,w
  2572     0232  00C3               	movwf	??___flmul+1
  2573     0233  01C4               	clrf	??___flmul+2
  2574     0234  01C5               	clrf	??___flmul+3
  2575     0235  3008               	movlw	8
  2576     0236                     u254_25:
  2577     0236  1003               	clrc
  2578     0237  0DC2               	rlf	??___flmul,f
  2579     0238  0DC3               	rlf	??___flmul+1,f
  2580     0239  0DC4               	rlf	??___flmul+2,f
  2581     023A  0DC5               	rlf	??___flmul+3,f
  2582     023B                     u254_20:
  2583     023B  3EFF               	addlw	-1
  2584     023C  1D03               	skipz
  2585     023D  2A36               	goto	u254_25
  2586     023E  0842               	movf	??___flmul,w
  2587     023F  07CE               	addwf	___flmul@prod,f
  2588     0240  0843               	movf	??___flmul+1,w
  2589     0241  1103               	clrz
  2590     0242  1803               	skipnc
  2591     0243  3E01               	addlw	1
  2592     0244  1903               	skipnz
  2593     0245  2A47               	goto	u255_21
  2594     0246  07CF               	addwf	___flmul@prod+1,f
  2595     0247                     u255_21:
  2596     0247  0844               	movf	??___flmul+2,w
  2597     0248  1103               	clrz
  2598     0249  1803               	skipnc
  2599     024A  3E01               	addlw	1
  2600     024B  1903               	skipnz
  2601     024C  2A4E               	goto	u255_22
  2602     024D  07D0               	addwf	___flmul@prod+2,f
  2603     024E                     u255_22:
  2604     024E  0845               	movf	??___flmul+3,w
  2605     024F  1103               	clrz
  2606     0250  1803               	skipnc
  2607     0251  3E01               	addlw	1
  2608     0252  1903               	skipnz
  2609     0253  2A55               	goto	u255_23
  2610     0254  07D1               	addwf	___flmul@prod+3,f
  2611     0255                     u255_23:
  2612     0255                     i1l1826:
  2613     0255  0848               	movf	___flmul@grs,w
  2614     0256  00C2               	movwf	??___flmul
  2615     0257  0849               	movf	___flmul@grs+1,w
  2616     0258  00C3               	movwf	??___flmul+1
  2617     0259  084A               	movf	___flmul@grs+2,w
  2618     025A  00C4               	movwf	??___flmul+2
  2619     025B  084B               	movf	___flmul@grs+3,w
  2620     025C  00C5               	movwf	??___flmul+3
  2621     025D  3018               	movlw	24
  2622     025E                     u256_25:
  2623     025E  1003               	clrc
  2624     025F  0CC5               	rrf	??___flmul+3,f
  2625     0260  0CC4               	rrf	??___flmul+2,f
  2626     0261  0CC3               	rrf	??___flmul+1,f
  2627     0262  0CC2               	rrf	??___flmul,f
  2628     0263                     u256_20:
  2629     0263  3EFF               	addlw	-1
  2630     0264  1D03               	skipz
  2631     0265  2A5E               	goto	u256_25
  2632     0266  0842               	movf	??___flmul,w
  2633     0267  07CE               	addwf	___flmul@prod,f
  2634     0268  0843               	movf	??___flmul+1,w
  2635     0269  1103               	clrz
  2636     026A  1803               	skipnc
  2637     026B  3E01               	addlw	1
  2638     026C  1903               	skipnz
  2639     026D  2A6F               	goto	u257_21
  2640     026E  07CF               	addwf	___flmul@prod+1,f
  2641     026F                     u257_21:
  2642     026F  0844               	movf	??___flmul+2,w
  2643     0270  1103               	clrz
  2644     0271  1803               	skipnc
  2645     0272  3E01               	addlw	1
  2646     0273  1903               	skipnz
  2647     0274  2A76               	goto	u257_22
  2648     0275  07D0               	addwf	___flmul@prod+2,f
  2649     0276                     u257_22:
  2650     0276  0845               	movf	??___flmul+3,w
  2651     0277  1103               	clrz
  2652     0278  1803               	skipnc
  2653     0279  3E01               	addlw	1
  2654     027A  1903               	skipnz
  2655     027B  2A7D               	goto	u257_23
  2656     027C  07D1               	addwf	___flmul@prod+3,f
  2657     027D                     u257_23:
  2658     027D                     i1l1828:
  2659     027D  3008               	movlw	8
  2660     027E  00C2               	movwf	??___flmul
  2661     027F                     u258_25:
  2662     027F  1003               	clrc
  2663     0280  0DC8               	rlf	___flmul@grs,f
  2664     0281  0DC9               	rlf	___flmul@grs+1,f
  2665     0282  0DCA               	rlf	___flmul@grs+2,f
  2666     0283  0DCB               	rlf	___flmul@grs+3,f
  2667     0284  0BC2               	decfsz	??___flmul,f
  2668     0285  2A7F               	goto	u258_25
  2669     0286                     i1l1830:
  2670     0286  084D               	movf	___flmul@bexp,w
  2671     0287  074C               	addwf	___flmul@aexp,w
  2672     0288  00C2               	movwf	??___flmul
  2673     0289  01C3               	clrf	??___flmul+1
  2674     028A  0DC3               	rlf	??___flmul+1,f
  2675     028B  0842               	movf	??___flmul,w
  2676     028C  3E82               	addlw	130
  2677     028D  00D2               	movwf	___flmul@temp
  2678     028E  0843               	movf	??___flmul+1,w
  2679     028F  1803               	skipnc
  2680     0290  3E01               	addlw	1
  2681     0291  3EFF               	addlw	255
  2682     0292  00D3               	movwf	___flmul@temp+1
  2683     0293  2AB1               	goto	i1l1842
  2684     0294                     i1l1832:
  2685     0294  3001               	movlw	1
  2686     0295  00C2               	movwf	??___flmul
  2687     0296                     u259_25:
  2688     0296  1003               	clrc
  2689     0297  0DCE               	rlf	___flmul@prod,f
  2690     0298  0DCF               	rlf	___flmul@prod+1,f
  2691     0299  0DD0               	rlf	___flmul@prod+2,f
  2692     029A  0DD1               	rlf	___flmul@prod+3,f
  2693     029B  0BC2               	decfsz	??___flmul,f
  2694     029C  2A96               	goto	u259_25
  2695     029D                     i1l1834:
  2696     029D  1FCB               	btfss	___flmul@grs+3,7
  2697     029E  2AA0               	goto	u260_21
  2698     029F  2AA1               	goto	u260_20
  2699     02A0                     u260_21:
  2700     02A0  2AA2               	goto	i1l1838
  2701     02A1                     u260_20:
  2702     02A1                     i1l1836:
  2703     02A1  144E               	bsf	___flmul@prod,0
  2704     02A2                     i1l1838:
  2705     02A2  3001               	movlw	1
  2706     02A3  00C2               	movwf	??___flmul
  2707     02A4                     u261_25:
  2708     02A4  1003               	clrc
  2709     02A5  0DC8               	rlf	___flmul@grs,f
  2710     02A6  0DC9               	rlf	___flmul@grs+1,f
  2711     02A7  0DCA               	rlf	___flmul@grs+2,f
  2712     02A8  0DCB               	rlf	___flmul@grs+3,f
  2713     02A9  0BC2               	decfsz	??___flmul,f
  2714     02AA  2AA4               	goto	u261_25
  2715     02AB                     i1l1840:
  2716     02AB  30FF               	movlw	255
  2717     02AC  07D2               	addwf	___flmul@temp,f
  2718     02AD  1803               	skipnc
  2719     02AE  0AD3               	incf	___flmul@temp+1,f
  2720     02AF  30FF               	movlw	255
  2721     02B0  07D3               	addwf	___flmul@temp+1,f
  2722     02B1                     i1l1842:
  2723     02B1  1FD0               	btfss	___flmul@prod+2,7
  2724     02B2  2AB4               	goto	u262_21
  2725     02B3  2AB5               	goto	u262_20
  2726     02B4                     u262_21:
  2727     02B4  2A94               	goto	i1l1832
  2728     02B5                     u262_20:
  2729     02B5                     i1l1844:
  2730     02B5  01CC               	clrf	___flmul@aexp
  2731     02B6                     i1l1846:
  2732     02B6  1FCB               	btfss	___flmul@grs+3,7
  2733     02B7  2AB9               	goto	u263_21
  2734     02B8  2ABA               	goto	u263_20
  2735     02B9                     u263_21:
  2736     02B9  2AD6               	goto	i1l1854
  2737     02BA                     u263_20:
  2738     02BA                     i1l1848:
  2739     02BA  30FF               	movlw	255
  2740     02BB  0548               	andwf	___flmul@grs,w
  2741     02BC  00C2               	movwf	??___flmul
  2742     02BD  30FF               	movlw	255
  2743     02BE  0549               	andwf	___flmul@grs+1,w
  2744     02BF  00C3               	movwf	??___flmul+1
  2745     02C0  30FF               	movlw	255
  2746     02C1  054A               	andwf	___flmul@grs+2,w
  2747     02C2  00C4               	movwf	??___flmul+2
  2748     02C3  307F               	movlw	127
  2749     02C4  054B               	andwf	___flmul@grs+3,w
  2750     02C5  00C5               	movwf	??___flmul+3
  2751     02C6  0845               	movf	??___flmul+3,w
  2752     02C7  0444               	iorwf	??___flmul+2,w
  2753     02C8  0443               	iorwf	??___flmul+1,w
  2754     02C9  0442               	iorwf	??___flmul,w
  2755     02CA  1903               	skipnz
  2756     02CB  2ACD               	goto	u264_21
  2757     02CC  2ACE               	goto	u264_20
  2758     02CD                     u264_21:
  2759     02CD  2AD1               	goto	i1l579
  2760     02CE                     u264_20:
  2761     02CE                     i1l1850:
  2762     02CE  01CC               	clrf	___flmul@aexp
  2763     02CF  0ACC               	incf	___flmul@aexp,f
  2764     02D0  2AD6               	goto	i1l1854
  2765     02D1                     i1l579:
  2766     02D1  1C4E               	btfss	___flmul@prod,0
  2767     02D2  2AD4               	goto	u265_21
  2768     02D3  2AD5               	goto	u265_20
  2769     02D4                     u265_21:
  2770     02D4  2AD6               	goto	i1l1854
  2771     02D5                     u265_20:
  2772     02D5  2ACE               	goto	i1l1850
  2773     02D6                     i1l1854:
  2774     02D6  084C               	movf	___flmul@aexp,w
  2775     02D7  1903               	btfsc	3,2
  2776     02D8  2ADA               	goto	u266_21
  2777     02D9  2ADB               	goto	u266_20
  2778     02DA                     u266_21:
  2779     02DA  2B0C               	goto	i1l1864
  2780     02DB                     u266_20:
  2781     02DB                     i1l1856:
  2782     02DB  3001               	movlw	1
  2783     02DC  07CE               	addwf	___flmul@prod,f
  2784     02DD  3000               	movlw	0
  2785     02DE  1803               	skipnc
  2786     02DF  3001               	movlw	1
  2787     02E0  07CF               	addwf	___flmul@prod+1,f
  2788     02E1  3000               	movlw	0
  2789     02E2  1803               	skipnc
  2790     02E3  3001               	movlw	1
  2791     02E4  07D0               	addwf	___flmul@prod+2,f
  2792     02E5  3000               	movlw	0
  2793     02E6  1803               	skipnc
  2794     02E7  3001               	movlw	1
  2795     02E8  07D1               	addwf	___flmul@prod+3,f
  2796     02E9                     i1l1858:
  2797     02E9  1C51               	btfss	___flmul@prod+3,0
  2798     02EA  2AEC               	goto	u267_21
  2799     02EB  2AED               	goto	u267_20
  2800     02EC                     u267_21:
  2801     02EC  2B0C               	goto	i1l1864
  2802     02ED                     u267_20:
  2803     02ED                     i1l1860:
  2804     02ED  084E               	movf	___flmul@prod,w
  2805     02EE  00C2               	movwf	??___flmul
  2806     02EF  084F               	movf	___flmul@prod+1,w
  2807     02F0  00C3               	movwf	??___flmul+1
  2808     02F1  0850               	movf	___flmul@prod+2,w
  2809     02F2  00C4               	movwf	??___flmul+2
  2810     02F3  0851               	movf	___flmul@prod+3,w
  2811     02F4  00C5               	movwf	??___flmul+3
  2812     02F5  3001               	movlw	1
  2813     02F6  00C6               	movwf	??___flmul+4
  2814     02F7                     u268_25:
  2815     02F7  0D45               	rlf	??___flmul+3,w
  2816     02F8  0CC5               	rrf	??___flmul+3,f
  2817     02F9  0CC4               	rrf	??___flmul+2,f
  2818     02FA  0CC3               	rrf	??___flmul+1,f
  2819     02FB  0CC2               	rrf	??___flmul,f
  2820     02FC                     u268_20:
  2821     02FC  0BC6               	decfsz	??___flmul+4,f
  2822     02FD  2AF7               	goto	u268_25
  2823     02FE  0845               	movf	??___flmul+3,w
  2824     02FF  00D1               	movwf	___flmul@prod+3
  2825     0300  0844               	movf	??___flmul+2,w
  2826     0301  00D0               	movwf	___flmul@prod+2
  2827     0302  0843               	movf	??___flmul+1,w
  2828     0303  00CF               	movwf	___flmul@prod+1
  2829     0304  0842               	movf	??___flmul,w
  2830     0305  00CE               	movwf	___flmul@prod
  2831     0306                     i1l1862:
  2832     0306  3001               	movlw	1
  2833     0307  07D2               	addwf	___flmul@temp,f
  2834     0308  1803               	skipnc
  2835     0309  0AD3               	incf	___flmul@temp+1,f
  2836     030A  3000               	movlw	0
  2837     030B  07D3               	addwf	___flmul@temp+1,f
  2838     030C                     i1l1864:
  2839     030C  0853               	movf	___flmul@temp+1,w
  2840     030D  3A80               	xorlw	128
  2841     030E  00FF               	movwf	btemp+1
  2842     030F  3080               	movlw	128
  2843     0310  027F               	subwf	btemp+1,w
  2844     0311  1D03               	skipz
  2845     0312  2B15               	goto	u269_25
  2846     0313  30FF               	movlw	255
  2847     0314  0252               	subwf	___flmul@temp,w
  2848     0315                     u269_25:
  2849     0315  1C03               	skipc
  2850     0316  2B18               	goto	u269_21
  2851     0317  2B19               	goto	u269_20
  2852     0318                     u269_21:
  2853     0318  2B24               	goto	i1l1868
  2854     0319                     u269_20:
  2855     0319                     i1l1866:
  2856     0319  307F               	movlw	127
  2857     031A  1283               	bcf	3,5	;RP0=0, select bank0
  2858     031B  1303               	bcf	3,6	;RP1=0, select bank0
  2859     031C  00D1               	movwf	___flmul@prod+3
  2860     031D  3080               	movlw	128
  2861     031E  00D0               	movwf	___flmul@prod+2
  2862     031F  3000               	movlw	0
  2863     0320  00CF               	movwf	___flmul@prod+1
  2864     0321  3000               	movlw	0
  2865     0322  00CE               	movwf	___flmul@prod
  2866     0323  2B55               	goto	i1l585
  2867     0324                     i1l1868:
  2868     0324  1283               	bcf	3,5	;RP0=0, select bank0
  2869     0325  1303               	bcf	3,6	;RP1=0, select bank0
  2870     0326  0853               	movf	___flmul@temp+1,w
  2871     0327  3A80               	xorlw	128
  2872     0328  00FF               	movwf	btemp+1
  2873     0329  3080               	movlw	128
  2874     032A  027F               	subwf	btemp+1,w
  2875     032B  1D03               	skipz
  2876     032C  2B2F               	goto	u270_25
  2877     032D  3001               	movlw	1
  2878     032E  0252               	subwf	___flmul@temp,w
  2879     032F                     u270_25:
  2880     032F  1803               	skipnc
  2881     0330  2B32               	goto	u270_21
  2882     0331  2B33               	goto	u270_20
  2883     0332                     u270_21:
  2884     0332  2B3F               	goto	i1l1874
  2885     0333                     u270_20:
  2886     0333                     i1l1870:
  2887     0333  3000               	movlw	0
  2888     0334  1283               	bcf	3,5	;RP0=0, select bank0
  2889     0335  1303               	bcf	3,6	;RP1=0, select bank0
  2890     0336  00D1               	movwf	___flmul@prod+3
  2891     0337  3000               	movlw	0
  2892     0338  00D0               	movwf	___flmul@prod+2
  2893     0339  3000               	movlw	0
  2894     033A  00CF               	movwf	___flmul@prod+1
  2895     033B  3000               	movlw	0
  2896     033C  00CE               	movwf	___flmul@prod
  2897     033D                     i1l1872:
  2898     033D  01C7               	clrf	___flmul@sign
  2899     033E  2B55               	goto	i1l585
  2900     033F                     i1l1874:
  2901     033F  1283               	bcf	3,5	;RP0=0, select bank0
  2902     0340  1303               	bcf	3,6	;RP1=0, select bank0
  2903     0341  0852               	movf	___flmul@temp,w
  2904     0342  00CD               	movwf	___flmul@bexp
  2905     0343  30FF               	movlw	255
  2906     0344  05CE               	andwf	___flmul@prod,f
  2907     0345  30FF               	movlw	255
  2908     0346  05CF               	andwf	___flmul@prod+1,f
  2909     0347  307F               	movlw	127
  2910     0348  05D0               	andwf	___flmul@prod+2,f
  2911     0349  3000               	movlw	0
  2912     034A  05D1               	andwf	___flmul@prod+3,f
  2913     034B                     i1l1876:
  2914     034B  1C4D               	btfss	___flmul@bexp,0
  2915     034C  2B4E               	goto	u271_21
  2916     034D  2B4F               	goto	u271_20
  2917     034E                     u271_21:
  2918     034E  2B50               	goto	i1l1880
  2919     034F                     u271_20:
  2920     034F                     i1l1878:
  2921     034F  17D0               	bsf	___flmul@prod+2,7
  2922     0350                     i1l1880:
  2923     0350  084D               	movf	___flmul@bexp,w
  2924     0351  00C2               	movwf	??___flmul
  2925     0352  1003               	clrc
  2926     0353  0C42               	rrf	??___flmul,w
  2927     0354  00D1               	movwf	___flmul@prod+3
  2928     0355                     i1l585:
  2929     0355  0847               	movf	___flmul@sign,w
  2930     0356  00C2               	movwf	??___flmul
  2931     0357  0842               	movf	??___flmul,w
  2932     0358  04D1               	iorwf	___flmul@prod+3,f
  2933     0359                     i1l1882:
  2934     0359  0851               	movf	___flmul@prod+3,w
  2935     035A  00BD               	movwf	?___flmul+3
  2936     035B  0850               	movf	___flmul@prod+2,w
  2937     035C  00BC               	movwf	?___flmul+2
  2938     035D  084F               	movf	___flmul@prod+1,w
  2939     035E  00BB               	movwf	?___flmul+1
  2940     035F  084E               	movf	___flmul@prod,w
  2941     0360  00BA               	movwf	?___flmul
  2942     0361                     i1l573:
  2943     0361  0008               	return
  2944     0362                     __end_of___flmul:
  2945                           
  2946                           	psect	text9
  2947     0D0B                     __ptext9:	
  2948 ;; *************** function __Umul8_16 *****************
  2949 ;; Defined at:
  2950 ;;		line 4 in file "C:\Program Files\Microchip\xc8\v2.40\pic\sources\c90\common\Umul8_16.c"
  2951 ;; Parameters:    Size  Location     Type
  2952 ;;  multiplier      1    wreg     unsigned char 
  2953 ;;  multiplicand    1    0[COMMON] unsigned char 
  2954 ;; Auto vars:     Size  Location     Type
  2955 ;;  multiplier      1    8[COMMON] unsigned char 
  2956 ;;  word_mpld       2    6[COMMON] unsigned int 
  2957 ;;  product         2    4[COMMON] unsigned int 
  2958 ;; Return value:  Size  Location     Type
  2959 ;;                  2    0[COMMON] unsigned int 
  2960 ;; Registers used:
  2961 ;;		wreg, status,2, status,0
  2962 ;; Tracked objects:
  2963 ;;		On entry : 0/0
  2964 ;;		On exit  : 0/0
  2965 ;;		Unchanged: 0/0
  2966 ;; Data sizes:     COMMON   BANK0   BANK1   BANK3   BANK2
  2967 ;;      Params:         2       0       0       0       0
  2968 ;;      Locals:         5       0       0       0       0
  2969 ;;      Temps:          2       0       0       0       0
  2970 ;;      Totals:         9       0       0       0       0
  2971 ;;Total ram usage:        9 bytes
  2972 ;; Hardware stack levels used: 1
  2973 ;; This function calls:
  2974 ;;		Nothing
  2975 ;; This function is called by:
  2976 ;;		___flmul
  2977 ;; This function uses a non-reentrant model
  2978 ;;
  2979                           
  2980     0D0B                     __Umul8_16:	
  2981                           ;psect for function __Umul8_16
  2982                           
  2983                           
  2984                           ;incstack = 0
  2985                           ; Regs used in __Umul8_16: [wreg+status,2+status,0]
  2986                           ;__Umul8_16@multiplier stored from wreg
  2987     0D0B  00F8               	movwf	__Umul8_16@multiplier
  2988     0D0C                     i1l1360:
  2989     0D0C  01F4               	clrf	__Umul8_16@product
  2990     0D0D  01F5               	clrf	__Umul8_16@product+1
  2991     0D0E                     i1l1362:
  2992     0D0E  0870               	movf	__Umul8_16@multiplicand,w
  2993     0D0F  00F2               	movwf	??__Umul8_16
  2994     0D10  01F3               	clrf	??__Umul8_16+1
  2995     0D11  0872               	movf	??__Umul8_16,w
  2996     0D12  00F6               	movwf	__Umul8_16@word_mpld
  2997     0D13  0873               	movf	??__Umul8_16+1,w
  2998     0D14  00F7               	movwf	__Umul8_16@word_mpld+1
  2999     0D15                     i1l1364:
  3000     0D15  1C78               	btfss	__Umul8_16@multiplier,0
  3001     0D16  2D18               	goto	u147_21
  3002     0D17  2D19               	goto	u147_20
  3003     0D18                     u147_21:
  3004     0D18  2D1F               	goto	i1l592
  3005     0D19                     u147_20:
  3006     0D19                     i1l1366:
  3007     0D19  0876               	movf	__Umul8_16@word_mpld,w
  3008     0D1A  07F4               	addwf	__Umul8_16@product,f
  3009     0D1B  1803               	skipnc
  3010     0D1C  0AF5               	incf	__Umul8_16@product+1,f
  3011     0D1D  0877               	movf	__Umul8_16@word_mpld+1,w
  3012     0D1E  07F5               	addwf	__Umul8_16@product+1,f
  3013     0D1F                     i1l592:
  3014     0D1F  3001               	movlw	1
  3015     0D20                     u148_25:
  3016     0D20  1003               	clrc
  3017     0D21  0DF6               	rlf	__Umul8_16@word_mpld,f
  3018     0D22  0DF7               	rlf	__Umul8_16@word_mpld+1,f
  3019     0D23  3EFF               	addlw	-1
  3020     0D24  1D03               	skipz
  3021     0D25  2D20               	goto	u148_25
  3022     0D26  1003               	clrc
  3023     0D27  0CF8               	rrf	__Umul8_16@multiplier,f
  3024     0D28                     i1l1368:
  3025     0D28  0878               	movf	__Umul8_16@multiplier,w
  3026     0D29  1D03               	btfss	3,2
  3027     0D2A  2D2C               	goto	u149_21
  3028     0D2B  2D2D               	goto	u149_20
  3029     0D2C                     u149_21:
  3030     0D2C  2D15               	goto	i1l1364
  3031     0D2D                     u149_20:
  3032     0D2D                     i1l1370:
  3033     0D2D  0875               	movf	__Umul8_16@product+1,w
  3034     0D2E  00F1               	movwf	?__Umul8_16+1
  3035     0D2F  0874               	movf	__Umul8_16@product,w
  3036     0D30  00F0               	movwf	?__Umul8_16
  3037     0D31                     i1l594:
  3038     0D31  0008               	return
  3039     0D32                     __end_of__Umul8_16:
  3040                           
  3041                           	psect	text10
  3042     05BA                     __ptext10:	
  3043 ;; *************** function ___fldiv *****************
  3044 ;; Defined at:
  3045 ;;		line 8 in file "C:\Program Files\Microchip\xc8\v2.40\pic\sources\c90\common\sprcdiv.c"
  3046 ;; Parameters:    Size  Location     Type
  3047 ;;  a               4    0[BANK0 ] unsigned int 
  3048 ;;  b               4    4[BANK0 ] unsigned int 
  3049 ;; Auto vars:     Size  Location     Type
  3050 ;;  grs             4   20[BANK0 ] unsigned long 
  3051 ;;  rem             4   13[BANK0 ] unsigned long 
  3052 ;;  new_exp         2   18[BANK0 ] int 
  3053 ;;  aexp            1   25[BANK0 ] unsigned char 
  3054 ;;  bexp            1   24[BANK0 ] unsigned char 
  3055 ;;  sign            1   17[BANK0 ] unsigned char 
  3056 ;; Return value:  Size  Location     Type
  3057 ;;                  4    0[BANK0 ] unsigned char 
  3058 ;; Registers used:
  3059 ;;		wreg, status,2, status,0, btemp+1
  3060 ;; Tracked objects:
  3061 ;;		On entry : 0/0
  3062 ;;		On exit  : 0/0
  3063 ;;		Unchanged: 0/0
  3064 ;; Data sizes:     COMMON   BANK0   BANK1   BANK3   BANK2
  3065 ;;      Params:         0       8       0       0       0
  3066 ;;      Locals:         0      13       0       0       0
  3067 ;;      Temps:          0       5       0       0       0
  3068 ;;      Totals:         0      26       0       0       0
  3069 ;;Total ram usage:       26 bytes
  3070 ;; Hardware stack levels used: 1
  3071 ;; This function calls:
  3072 ;;		Nothing
  3073 ;; This function is called by:
  3074 ;;		_map
  3075 ;; This function uses a non-reentrant model
  3076 ;;
  3077                           
  3078     05BA                     ___fldiv:	
  3079                           ;psect for function ___fldiv
  3080                           
  3081     05BA                     i1l1604:	
  3082                           ;incstack = 0
  3083                           ; Regs used in ___fldiv: [wreg+status,2+status,0+btemp+1]
  3084                           
  3085     05BA  1283               	bcf	3,5	;RP0=0, select bank0
  3086     05BB  1303               	bcf	3,6	;RP1=0, select bank0
  3087     05BC  0827               	movf	___fldiv@b+3,w
  3088     05BD  3980               	andlw	128
  3089     05BE  00B1               	movwf	___fldiv@sign
  3090     05BF                     i1l1606:
  3091     05BF  0827               	movf	___fldiv@b+3,w
  3092     05C0  00A8               	movwf	??___fldiv
  3093     05C1  0728               	addwf	??___fldiv,w
  3094     05C2  00B8               	movwf	___fldiv@bexp
  3095     05C3                     i1l1608:
  3096     05C3  1FA6               	btfss	___fldiv@b+2,7
  3097     05C4  2DC6               	goto	u206_21
  3098     05C5  2DC7               	goto	u206_20
  3099     05C6                     u206_21:
  3100     05C6  2DC8               	goto	i1l1612
  3101     05C7                     u206_20:
  3102     05C7                     i1l1610:
  3103     05C7  1438               	bsf	___fldiv@bexp,0
  3104     05C8                     i1l1612:
  3105     05C8  0838               	movf	___fldiv@bexp,w
  3106     05C9  1903               	btfsc	3,2
  3107     05CA  2DCC               	goto	u207_21
  3108     05CB  2DCD               	goto	u207_20
  3109     05CC                     u207_21:
  3110     05CC  2DDD               	goto	i1l1622
  3111     05CD                     u207_20:
  3112     05CD                     i1l1614:
  3113     05CD  0A38               	incf	___fldiv@bexp,w
  3114     05CE  1D03               	btfss	3,2
  3115     05CF  2DD1               	goto	u208_21
  3116     05D0  2DD2               	goto	u208_20
  3117     05D1                     u208_21:
  3118     05D1  2DDA               	goto	i1l1618
  3119     05D2                     u208_20:
  3120     05D2                     i1l1616:
  3121     05D2  3000               	movlw	0
  3122     05D3  00A7               	movwf	___fldiv@b+3
  3123     05D4  3000               	movlw	0
  3124     05D5  00A6               	movwf	___fldiv@b+2
  3125     05D6  3000               	movlw	0
  3126     05D7  00A5               	movwf	___fldiv@b+1
  3127     05D8  3000               	movlw	0
  3128     05D9  00A4               	movwf	___fldiv@b
  3129     05DA                     i1l1618:
  3130     05DA  17A6               	bsf	___fldiv@b+2,7
  3131     05DB                     i1l1620:
  3132     05DB  01A7               	clrf	___fldiv@b+3
  3133     05DC  2DE5               	goto	i1l1624
  3134     05DD                     i1l1622:
  3135     05DD  3000               	movlw	0
  3136     05DE  00A7               	movwf	___fldiv@b+3
  3137     05DF  3000               	movlw	0
  3138     05E0  00A6               	movwf	___fldiv@b+2
  3139     05E1  3000               	movlw	0
  3140     05E2  00A5               	movwf	___fldiv@b+1
  3141     05E3  3000               	movlw	0
  3142     05E4  00A4               	movwf	___fldiv@b
  3143     05E5                     i1l1624:
  3144     05E5  0823               	movf	___fldiv@a+3,w
  3145     05E6  3980               	andlw	128
  3146     05E7  00A8               	movwf	??___fldiv
  3147     05E8  0828               	movf	??___fldiv,w
  3148     05E9  06B1               	xorwf	___fldiv@sign,f
  3149     05EA                     i1l1626:
  3150     05EA  0823               	movf	___fldiv@a+3,w
  3151     05EB  00A8               	movwf	??___fldiv
  3152     05EC  0728               	addwf	??___fldiv,w
  3153     05ED  00B9               	movwf	___fldiv@aexp
  3154     05EE                     i1l1628:
  3155     05EE  1FA2               	btfss	___fldiv@a+2,7
  3156     05EF  2DF1               	goto	u209_21
  3157     05F0  2DF2               	goto	u209_20
  3158     05F1                     u209_21:
  3159     05F1  2DF3               	goto	i1l1632
  3160     05F2                     u209_20:
  3161     05F2                     i1l1630:
  3162     05F2  1439               	bsf	___fldiv@aexp,0
  3163     05F3                     i1l1632:
  3164     05F3  0839               	movf	___fldiv@aexp,w
  3165     05F4  1903               	btfsc	3,2
  3166     05F5  2DF7               	goto	u210_21
  3167     05F6  2DF8               	goto	u210_20
  3168     05F7                     u210_21:
  3169     05F7  2E08               	goto	i1l1642
  3170     05F8                     u210_20:
  3171     05F8                     i1l1634:
  3172     05F8  0A39               	incf	___fldiv@aexp,w
  3173     05F9  1D03               	btfss	3,2
  3174     05FA  2DFC               	goto	u211_21
  3175     05FB  2DFD               	goto	u211_20
  3176     05FC                     u211_21:
  3177     05FC  2E05               	goto	i1l1638
  3178     05FD                     u211_20:
  3179     05FD                     i1l1636:
  3180     05FD  3000               	movlw	0
  3181     05FE  00A3               	movwf	___fldiv@a+3
  3182     05FF  3000               	movlw	0
  3183     0600  00A2               	movwf	___fldiv@a+2
  3184     0601  3000               	movlw	0
  3185     0602  00A1               	movwf	___fldiv@a+1
  3186     0603  3000               	movlw	0
  3187     0604  00A0               	movwf	___fldiv@a
  3188     0605                     i1l1638:
  3189     0605  17A2               	bsf	___fldiv@a+2,7
  3190     0606                     i1l1640:
  3191     0606  01A3               	clrf	___fldiv@a+3
  3192     0607  2E10               	goto	i1l533
  3193     0608                     i1l1642:
  3194     0608  3000               	movlw	0
  3195     0609  00A3               	movwf	___fldiv@a+3
  3196     060A  3000               	movlw	0
  3197     060B  00A2               	movwf	___fldiv@a+2
  3198     060C  3000               	movlw	0
  3199     060D  00A1               	movwf	___fldiv@a+1
  3200     060E  3000               	movlw	0
  3201     060F  00A0               	movwf	___fldiv@a
  3202     0610                     i1l533:
  3203     0610  0823               	movf	___fldiv@a+3,w
  3204     0611  0422               	iorwf	___fldiv@a+2,w
  3205     0612  0421               	iorwf	___fldiv@a+1,w
  3206     0613  0420               	iorwf	___fldiv@a,w
  3207     0614  1D03               	skipz
  3208     0615  2E17               	goto	u212_21
  3209     0616  2E18               	goto	u212_20
  3210     0617                     u212_21:
  3211     0617  2E31               	goto	i1l1652
  3212     0618                     u212_20:
  3213     0618                     i1l1644:
  3214     0618  3000               	movlw	0
  3215     0619  00A7               	movwf	___fldiv@b+3
  3216     061A  3000               	movlw	0
  3217     061B  00A6               	movwf	___fldiv@b+2
  3218     061C  3000               	movlw	0
  3219     061D  00A5               	movwf	___fldiv@b+1
  3220     061E  3000               	movlw	0
  3221     061F  00A4               	movwf	___fldiv@b
  3222     0620  3080               	movlw	128
  3223     0621  04A6               	iorwf	___fldiv@b+2,f
  3224     0622  307F               	movlw	127
  3225     0623  04A7               	iorwf	___fldiv@b+3,f
  3226     0624                     i1l1646:
  3227     0624  0831               	movf	___fldiv@sign,w
  3228     0625  00A8               	movwf	??___fldiv
  3229     0626  0828               	movf	??___fldiv,w
  3230     0627  04A7               	iorwf	___fldiv@b+3,f
  3231     0628                     i1l1648:
  3232     0628  0827               	movf	___fldiv@b+3,w
  3233     0629  00A3               	movwf	?___fldiv+3
  3234     062A  0826               	movf	___fldiv@b+2,w
  3235     062B  00A2               	movwf	?___fldiv+2
  3236     062C  0825               	movf	___fldiv@b+1,w
  3237     062D  00A1               	movwf	?___fldiv+1
  3238     062E  0824               	movf	___fldiv@b,w
  3239     062F  00A0               	movwf	?___fldiv
  3240     0630  2F8C               	goto	i1l535
  3241     0631                     i1l1652:
  3242     0631  0838               	movf	___fldiv@bexp,w
  3243     0632  1D03               	btfss	3,2
  3244     0633  2E35               	goto	u213_21
  3245     0634  2E36               	goto	u213_20
  3246     0635                     u213_21:
  3247     0635  2E3F               	goto	i1l1658
  3248     0636                     u213_20:
  3249     0636                     i1l1654:
  3250     0636  3000               	movlw	0
  3251     0637  00A3               	movwf	?___fldiv+3
  3252     0638  3000               	movlw	0
  3253     0639  00A2               	movwf	?___fldiv+2
  3254     063A  3000               	movlw	0
  3255     063B  00A1               	movwf	?___fldiv+1
  3256     063C  3000               	movlw	0
  3257     063D  00A0               	movwf	?___fldiv
  3258     063E  2F8C               	goto	i1l535
  3259     063F                     i1l1658:
  3260     063F  0838               	movf	___fldiv@bexp,w
  3261     0640  00A8               	movwf	??___fldiv
  3262     0641  01A9               	clrf	??___fldiv+1
  3263     0642  0829               	movf	??___fldiv+1,w
  3264     0643  00AB               	movwf	??___fldiv+3
  3265     0644  0839               	movf	___fldiv@aexp,w
  3266     0645  0228               	subwf	??___fldiv,w
  3267     0646  00AA               	movwf	??___fldiv+2
  3268     0647  1C03               	skipc
  3269     0648  03AB               	decf	??___fldiv+3,f
  3270     0649  082A               	movf	??___fldiv+2,w
  3271     064A  3E7F               	addlw	127
  3272     064B  00B2               	movwf	___fldiv@new_exp
  3273     064C  082B               	movf	??___fldiv+3,w
  3274     064D  1803               	skipnc
  3275     064E  3E01               	addlw	1
  3276     064F  3E00               	addlw	0
  3277     0650  00B3               	movwf	___fldiv@new_exp+1
  3278     0651                     i1l1660:
  3279     0651  0827               	movf	___fldiv@b+3,w
  3280     0652  00B0               	movwf	___fldiv@rem+3
  3281     0653  0826               	movf	___fldiv@b+2,w
  3282     0654  00AF               	movwf	___fldiv@rem+2
  3283     0655  0825               	movf	___fldiv@b+1,w
  3284     0656  00AE               	movwf	___fldiv@rem+1
  3285     0657  0824               	movf	___fldiv@b,w
  3286     0658  00AD               	movwf	___fldiv@rem
  3287     0659                     i1l1662:
  3288     0659  3000               	movlw	0
  3289     065A  00A7               	movwf	___fldiv@b+3
  3290     065B  3000               	movlw	0
  3291     065C  00A6               	movwf	___fldiv@b+2
  3292     065D  3000               	movlw	0
  3293     065E  00A5               	movwf	___fldiv@b+1
  3294     065F  3000               	movlw	0
  3295     0660  00A4               	movwf	___fldiv@b
  3296     0661                     i1l1664:
  3297     0661  3000               	movlw	0
  3298     0662  00B7               	movwf	___fldiv@grs+3
  3299     0663  3000               	movlw	0
  3300     0664  00B6               	movwf	___fldiv@grs+2
  3301     0665  3000               	movlw	0
  3302     0666  00B5               	movwf	___fldiv@grs+1
  3303     0667  3000               	movlw	0
  3304     0668  00B4               	movwf	___fldiv@grs
  3305     0669                     i1l1666:
  3306     0669  01B9               	clrf	___fldiv@aexp
  3307     066A  2EB5               	goto	i1l1686
  3308     066B                     i1l1668:
  3309     066B  0839               	movf	___fldiv@aexp,w
  3310     066C  1903               	btfsc	3,2
  3311     066D  2E6F               	goto	u214_21
  3312     066E  2E70               	goto	u214_20
  3313     066F                     u214_21:
  3314     066F  2E90               	goto	i1l1678
  3315     0670                     u214_20:
  3316     0670                     i1l1670:
  3317     0670  3001               	movlw	1
  3318     0671  00A8               	movwf	??___fldiv
  3319     0672                     u215_25:
  3320     0672  1003               	clrc
  3321     0673  0DAD               	rlf	___fldiv@rem,f
  3322     0674  0DAE               	rlf	___fldiv@rem+1,f
  3323     0675  0DAF               	rlf	___fldiv@rem+2,f
  3324     0676  0DB0               	rlf	___fldiv@rem+3,f
  3325     0677  0BA8               	decfsz	??___fldiv,f
  3326     0678  2E72               	goto	u215_25
  3327     0679  3001               	movlw	1
  3328     067A  00A8               	movwf	??___fldiv
  3329     067B                     u216_25:
  3330     067B  1003               	clrc
  3331     067C  0DA4               	rlf	___fldiv@b,f
  3332     067D  0DA5               	rlf	___fldiv@b+1,f
  3333     067E  0DA6               	rlf	___fldiv@b+2,f
  3334     067F  0DA7               	rlf	___fldiv@b+3,f
  3335     0680  0BA8               	decfsz	??___fldiv,f
  3336     0681  2E7B               	goto	u216_25
  3337     0682                     i1l1672:
  3338     0682  1FB7               	btfss	___fldiv@grs+3,7
  3339     0683  2E85               	goto	u217_21
  3340     0684  2E86               	goto	u217_20
  3341     0685                     u217_21:
  3342     0685  2E87               	goto	i1l1676
  3343     0686                     u217_20:
  3344     0686                     i1l1674:
  3345     0686  1424               	bsf	___fldiv@b,0
  3346     0687                     i1l1676:
  3347     0687  3001               	movlw	1
  3348     0688  00A8               	movwf	??___fldiv
  3349     0689                     u218_25:
  3350     0689  1003               	clrc
  3351     068A  0DB4               	rlf	___fldiv@grs,f
  3352     068B  0DB5               	rlf	___fldiv@grs+1,f
  3353     068C  0DB6               	rlf	___fldiv@grs+2,f
  3354     068D  0DB7               	rlf	___fldiv@grs+3,f
  3355     068E  0BA8               	decfsz	??___fldiv,f
  3356     068F  2E89               	goto	u218_25
  3357     0690                     i1l1678:
  3358     0690  0823               	movf	___fldiv@a+3,w
  3359     0691  0230               	subwf	___fldiv@rem+3,w
  3360     0692  1D03               	skipz
  3361     0693  2E9E               	goto	u219_25
  3362     0694  0822               	movf	___fldiv@a+2,w
  3363     0695  022F               	subwf	___fldiv@rem+2,w
  3364     0696  1D03               	skipz
  3365     0697  2E9E               	goto	u219_25
  3366     0698  0821               	movf	___fldiv@a+1,w
  3367     0699  022E               	subwf	___fldiv@rem+1,w
  3368     069A  1D03               	skipz
  3369     069B  2E9E               	goto	u219_25
  3370     069C  0820               	movf	___fldiv@a,w
  3371     069D  022D               	subwf	___fldiv@rem,w
  3372     069E                     u219_25:
  3373     069E  1C03               	skipc
  3374     069F  2EA1               	goto	u219_21
  3375     06A0  2EA2               	goto	u219_20
  3376     06A1                     u219_21:
  3377     06A1  2EB1               	goto	i1l1684
  3378     06A2                     u219_20:
  3379     06A2                     i1l1680:
  3380     06A2  1737               	bsf	___fldiv@grs+3,6
  3381     06A3                     i1l1682:
  3382     06A3  0820               	movf	___fldiv@a,w
  3383     06A4  02AD               	subwf	___fldiv@rem,f
  3384     06A5  0821               	movf	___fldiv@a+1,w
  3385     06A6  1C03               	skipc
  3386     06A7  0F21               	incfsz	___fldiv@a+1,w
  3387     06A8  02AE               	subwf	___fldiv@rem+1,f
  3388     06A9  0822               	movf	___fldiv@a+2,w
  3389     06AA  1C03               	skipc
  3390     06AB  0F22               	incfsz	___fldiv@a+2,w
  3391     06AC  02AF               	subwf	___fldiv@rem+2,f
  3392     06AD  0823               	movf	___fldiv@a+3,w
  3393     06AE  1C03               	skipc
  3394     06AF  0F23               	incfsz	___fldiv@a+3,w
  3395     06B0  02B0               	subwf	___fldiv@rem+3,f
  3396     06B1                     i1l1684:
  3397     06B1  3001               	movlw	1
  3398     06B2  00A8               	movwf	??___fldiv
  3399     06B3  0828               	movf	??___fldiv,w
  3400     06B4  07B9               	addwf	___fldiv@aexp,f
  3401     06B5                     i1l1686:
  3402     06B5  301A               	movlw	26
  3403     06B6  0239               	subwf	___fldiv@aexp,w
  3404     06B7  1C03               	skipc
  3405     06B8  2EBA               	goto	u220_21
  3406     06B9  2EBB               	goto	u220_20
  3407     06BA                     u220_21:
  3408     06BA  2E6B               	goto	i1l1668
  3409     06BB                     u220_20:
  3410     06BB                     i1l1688:
  3411     06BB  0830               	movf	___fldiv@rem+3,w
  3412     06BC  042F               	iorwf	___fldiv@rem+2,w
  3413     06BD  042E               	iorwf	___fldiv@rem+1,w
  3414     06BE  042D               	iorwf	___fldiv@rem,w
  3415     06BF  1903               	skipnz
  3416     06C0  2EC2               	goto	u221_21
  3417     06C1  2EC3               	goto	u221_20
  3418     06C2                     u221_21:
  3419     06C2  2EE2               	goto	i1l1702
  3420     06C3                     u221_20:
  3421     06C3                     i1l1690:
  3422     06C3  1434               	bsf	___fldiv@grs,0
  3423     06C4  2EE2               	goto	i1l1702
  3424     06C5                     i1l1692:
  3425     06C5  3001               	movlw	1
  3426     06C6  00A8               	movwf	??___fldiv
  3427     06C7                     u222_25:
  3428     06C7  1003               	clrc
  3429     06C8  0DA4               	rlf	___fldiv@b,f
  3430     06C9  0DA5               	rlf	___fldiv@b+1,f
  3431     06CA  0DA6               	rlf	___fldiv@b+2,f
  3432     06CB  0DA7               	rlf	___fldiv@b+3,f
  3433     06CC  0BA8               	decfsz	??___fldiv,f
  3434     06CD  2EC7               	goto	u222_25
  3435     06CE                     i1l1694:
  3436     06CE  1FB7               	btfss	___fldiv@grs+3,7
  3437     06CF  2ED1               	goto	u223_21
  3438     06D0  2ED2               	goto	u223_20
  3439     06D1                     u223_21:
  3440     06D1  2ED3               	goto	i1l1698
  3441     06D2                     u223_20:
  3442     06D2                     i1l1696:
  3443     06D2  1424               	bsf	___fldiv@b,0
  3444     06D3                     i1l1698:
  3445     06D3  3001               	movlw	1
  3446     06D4  00A8               	movwf	??___fldiv
  3447     06D5                     u224_25:
  3448     06D5  1003               	clrc
  3449     06D6  0DB4               	rlf	___fldiv@grs,f
  3450     06D7  0DB5               	rlf	___fldiv@grs+1,f
  3451     06D8  0DB6               	rlf	___fldiv@grs+2,f
  3452     06D9  0DB7               	rlf	___fldiv@grs+3,f
  3453     06DA  0BA8               	decfsz	??___fldiv,f
  3454     06DB  2ED5               	goto	u224_25
  3455     06DC                     i1l1700:
  3456     06DC  30FF               	movlw	255
  3457     06DD  07B2               	addwf	___fldiv@new_exp,f
  3458     06DE  1803               	skipnc
  3459     06DF  0AB3               	incf	___fldiv@new_exp+1,f
  3460     06E0  30FF               	movlw	255
  3461     06E1  07B3               	addwf	___fldiv@new_exp+1,f
  3462     06E2                     i1l1702:
  3463     06E2  1FA6               	btfss	___fldiv@b+2,7
  3464     06E3  2EE5               	goto	u225_21
  3465     06E4  2EE6               	goto	u225_20
  3466     06E5                     u225_21:
  3467     06E5  2EC5               	goto	i1l1692
  3468     06E6                     u225_20:
  3469     06E6                     i1l1704:
  3470     06E6  01B9               	clrf	___fldiv@aexp
  3471     06E7                     i1l1706:
  3472     06E7  1FB7               	btfss	___fldiv@grs+3,7
  3473     06E8  2EEA               	goto	u226_21
  3474     06E9  2EEB               	goto	u226_20
  3475     06EA                     u226_21:
  3476     06EA  2F07               	goto	i1l1714
  3477     06EB                     u226_20:
  3478     06EB                     i1l1708:
  3479     06EB  30FF               	movlw	255
  3480     06EC  0534               	andwf	___fldiv@grs,w
  3481     06ED  00A8               	movwf	??___fldiv
  3482     06EE  30FF               	movlw	255
  3483     06EF  0535               	andwf	___fldiv@grs+1,w
  3484     06F0  00A9               	movwf	??___fldiv+1
  3485     06F1  30FF               	movlw	255
  3486     06F2  0536               	andwf	___fldiv@grs+2,w
  3487     06F3  00AA               	movwf	??___fldiv+2
  3488     06F4  307F               	movlw	127
  3489     06F5  0537               	andwf	___fldiv@grs+3,w
  3490     06F6  00AB               	movwf	??___fldiv+3
  3491     06F7  082B               	movf	??___fldiv+3,w
  3492     06F8  042A               	iorwf	??___fldiv+2,w
  3493     06F9  0429               	iorwf	??___fldiv+1,w
  3494     06FA  0428               	iorwf	??___fldiv,w
  3495     06FB  1903               	skipnz
  3496     06FC  2EFE               	goto	u227_21
  3497     06FD  2EFF               	goto	u227_20
  3498     06FE                     u227_21:
  3499     06FE  2F02               	goto	i1l549
  3500     06FF                     u227_20:
  3501     06FF                     i1l1710:
  3502     06FF  01B9               	clrf	___fldiv@aexp
  3503     0700  0AB9               	incf	___fldiv@aexp,f
  3504     0701  2F07               	goto	i1l1714
  3505     0702                     i1l549:
  3506     0702  1C24               	btfss	___fldiv@b,0
  3507     0703  2F05               	goto	u228_21
  3508     0704  2F06               	goto	u228_20
  3509     0705                     u228_21:
  3510     0705  2F07               	goto	i1l1714
  3511     0706                     u228_20:
  3512     0706  2EFF               	goto	i1l1710
  3513     0707                     i1l1714:
  3514     0707  0839               	movf	___fldiv@aexp,w
  3515     0708  1903               	btfsc	3,2
  3516     0709  2F0B               	goto	u229_21
  3517     070A  2F0C               	goto	u229_20
  3518     070B                     u229_21:
  3519     070B  2F3D               	goto	i1l1724
  3520     070C                     u229_20:
  3521     070C                     i1l1716:
  3522     070C  3001               	movlw	1
  3523     070D  07A4               	addwf	___fldiv@b,f
  3524     070E  3000               	movlw	0
  3525     070F  1803               	skipnc
  3526     0710  3001               	movlw	1
  3527     0711  07A5               	addwf	___fldiv@b+1,f
  3528     0712  3000               	movlw	0
  3529     0713  1803               	skipnc
  3530     0714  3001               	movlw	1
  3531     0715  07A6               	addwf	___fldiv@b+2,f
  3532     0716  3000               	movlw	0
  3533     0717  1803               	skipnc
  3534     0718  3001               	movlw	1
  3535     0719  07A7               	addwf	___fldiv@b+3,f
  3536     071A                     i1l1718:
  3537     071A  1C27               	btfss	___fldiv@b+3,0
  3538     071B  2F1D               	goto	u230_21
  3539     071C  2F1E               	goto	u230_20
  3540     071D                     u230_21:
  3541     071D  2F3D               	goto	i1l1724
  3542     071E                     u230_20:
  3543     071E                     i1l1720:
  3544     071E  0824               	movf	___fldiv@b,w
  3545     071F  00A8               	movwf	??___fldiv
  3546     0720  0825               	movf	___fldiv@b+1,w
  3547     0721  00A9               	movwf	??___fldiv+1
  3548     0722  0826               	movf	___fldiv@b+2,w
  3549     0723  00AA               	movwf	??___fldiv+2
  3550     0724  0827               	movf	___fldiv@b+3,w
  3551     0725  00AB               	movwf	??___fldiv+3
  3552     0726  3001               	movlw	1
  3553     0727  00AC               	movwf	??___fldiv+4
  3554     0728                     u231_25:
  3555     0728  0D2B               	rlf	??___fldiv+3,w
  3556     0729  0CAB               	rrf	??___fldiv+3,f
  3557     072A  0CAA               	rrf	??___fldiv+2,f
  3558     072B  0CA9               	rrf	??___fldiv+1,f
  3559     072C  0CA8               	rrf	??___fldiv,f
  3560     072D                     u231_20:
  3561     072D  0BAC               	decfsz	??___fldiv+4,f
  3562     072E  2F28               	goto	u231_25
  3563     072F  082B               	movf	??___fldiv+3,w
  3564     0730  00A7               	movwf	___fldiv@b+3
  3565     0731  082A               	movf	??___fldiv+2,w
  3566     0732  00A6               	movwf	___fldiv@b+2
  3567     0733  0829               	movf	??___fldiv+1,w
  3568     0734  00A5               	movwf	___fldiv@b+1
  3569     0735  0828               	movf	??___fldiv,w
  3570     0736  00A4               	movwf	___fldiv@b
  3571     0737                     i1l1722:
  3572     0737  3001               	movlw	1
  3573     0738  07B2               	addwf	___fldiv@new_exp,f
  3574     0739  1803               	skipnc
  3575     073A  0AB3               	incf	___fldiv@new_exp+1,f
  3576     073B  3000               	movlw	0
  3577     073C  07B3               	addwf	___fldiv@new_exp+1,f
  3578     073D                     i1l1724:
  3579     073D  0833               	movf	___fldiv@new_exp+1,w
  3580     073E  3A80               	xorlw	128
  3581     073F  00FF               	movwf	btemp+1
  3582     0740  3080               	movlw	128
  3583     0741  027F               	subwf	btemp+1,w
  3584     0742  1D03               	skipz
  3585     0743  2F46               	goto	u232_25
  3586     0744  30FF               	movlw	255
  3587     0745  0232               	subwf	___fldiv@new_exp,w
  3588     0746                     u232_25:
  3589     0746  1C03               	skipc
  3590     0747  2F49               	goto	u232_21
  3591     0748  2F4A               	goto	u232_20
  3592     0749                     u232_21:
  3593     0749  2F58               	goto	i1l1728
  3594     074A                     u232_20:
  3595     074A                     i1l1726:
  3596     074A  30FF               	movlw	255
  3597     074B  1283               	bcf	3,5	;RP0=0, select bank0
  3598     074C  1303               	bcf	3,6	;RP1=0, select bank0
  3599     074D  00B2               	movwf	___fldiv@new_exp
  3600     074E  3000               	movlw	0
  3601     074F  00B3               	movwf	___fldiv@new_exp+1
  3602     0750  3000               	movlw	0
  3603     0751  00A7               	movwf	___fldiv@b+3
  3604     0752  3000               	movlw	0
  3605     0753  00A6               	movwf	___fldiv@b+2
  3606     0754  3000               	movlw	0
  3607     0755  00A5               	movwf	___fldiv@b+1
  3608     0756  3000               	movlw	0
  3609     0757  00A4               	movwf	___fldiv@b
  3610     0758                     i1l1728:
  3611     0758  1283               	bcf	3,5	;RP0=0, select bank0
  3612     0759  1303               	bcf	3,6	;RP1=0, select bank0
  3613     075A  0833               	movf	___fldiv@new_exp+1,w
  3614     075B  3A80               	xorlw	128
  3615     075C  00FF               	movwf	btemp+1
  3616     075D  3080               	movlw	128
  3617     075E  027F               	subwf	btemp+1,w
  3618     075F  1D03               	skipz
  3619     0760  2F63               	goto	u233_25
  3620     0761  3001               	movlw	1
  3621     0762  0232               	subwf	___fldiv@new_exp,w
  3622     0763                     u233_25:
  3623     0763  1803               	skipnc
  3624     0764  2F66               	goto	u233_21
  3625     0765  2F67               	goto	u233_20
  3626     0766                     u233_21:
  3627     0766  2F74               	goto	i1l555
  3628     0767                     u233_20:
  3629     0767                     i1l1730:
  3630     0767  1283               	bcf	3,5	;RP0=0, select bank0
  3631     0768  1303               	bcf	3,6	;RP1=0, select bank0
  3632     0769  01B2               	clrf	___fldiv@new_exp
  3633     076A  01B3               	clrf	___fldiv@new_exp+1
  3634     076B                     i1l1732:
  3635     076B  3000               	movlw	0
  3636     076C  00A7               	movwf	___fldiv@b+3
  3637     076D  3000               	movlw	0
  3638     076E  00A6               	movwf	___fldiv@b+2
  3639     076F  3000               	movlw	0
  3640     0770  00A5               	movwf	___fldiv@b+1
  3641     0771  3000               	movlw	0
  3642     0772  00A4               	movwf	___fldiv@b
  3643     0773                     i1l1734:
  3644     0773  01B1               	clrf	___fldiv@sign
  3645     0774                     i1l555:
  3646     0774  1283               	bcf	3,5	;RP0=0, select bank0
  3647     0775  1303               	bcf	3,6	;RP1=0, select bank0
  3648     0776  0832               	movf	___fldiv@new_exp,w
  3649     0777  00B8               	movwf	___fldiv@bexp
  3650     0778                     i1l1736:
  3651     0778  1C38               	btfss	___fldiv@bexp,0
  3652     0779  2F7B               	goto	u234_21
  3653     077A  2F7C               	goto	u234_20
  3654     077B                     u234_21:
  3655     077B  2F7E               	goto	i1l1740
  3656     077C                     u234_20:
  3657     077C                     i1l1738:
  3658     077C  17A6               	bsf	___fldiv@b+2,7
  3659     077D  2F82               	goto	i1l557
  3660     077E                     i1l1740:
  3661     077E  307F               	movlw	127
  3662     077F  00A8               	movwf	??___fldiv
  3663     0780  0828               	movf	??___fldiv,w
  3664     0781  05A6               	andwf	___fldiv@b+2,f
  3665     0782                     i1l557:
  3666     0782  0838               	movf	___fldiv@bexp,w
  3667     0783  00A8               	movwf	??___fldiv
  3668     0784  1003               	clrc
  3669     0785  0C28               	rrf	??___fldiv,w
  3670     0786  00A7               	movwf	___fldiv@b+3
  3671     0787  0831               	movf	___fldiv@sign,w
  3672     0788  00A8               	movwf	??___fldiv
  3673     0789  0828               	movf	??___fldiv,w
  3674     078A  04A7               	iorwf	___fldiv@b+3,f
  3675     078B  2E28               	goto	i1l1648
  3676     078C                     i1l535:
  3677     078C  0008               	return
  3678     078D                     __end_of___fldiv:
  3679                           
  3680                           	psect	text11
  3681     0362                     __ptext11:	
  3682 ;; *************** function ___fladd *****************
  3683 ;; Defined at:
  3684 ;;		line 10 in file "C:\Program Files\Microchip\xc8\v2.40\pic\sources\c90\common\sprcadd.c"
  3685 ;; Parameters:    Size  Location     Type
  3686 ;;  b               4   52[BANK0 ] unsigned char 
  3687 ;;  a               4   56[BANK0 ] unsigned char 
  3688 ;; Auto vars:     Size  Location     Type
  3689 ;;  grs             1   71[BANK0 ] unsigned char 
  3690 ;;  bexp            1   70[BANK0 ] unsigned char 
  3691 ;;  aexp            1   69[BANK0 ] unsigned char 
  3692 ;;  signs           1   68[BANK0 ] unsigned char 
  3693 ;; Return value:  Size  Location     Type
  3694 ;;                  4   52[BANK0 ] unsigned char 
  3695 ;; Registers used:
  3696 ;;		wreg, status,2, status,0, btemp+1
  3697 ;; Tracked objects:
  3698 ;;		On entry : 0/0
  3699 ;;		On exit  : 0/0
  3700 ;;		Unchanged: 0/0
  3701 ;; Data sizes:     COMMON   BANK0   BANK1   BANK3   BANK2
  3702 ;;      Params:         0       8       0       0       0
  3703 ;;      Locals:         0       4       0       0       0
  3704 ;;      Temps:          0       8       0       0       0
  3705 ;;      Totals:         0      20       0       0       0
  3706 ;;Total ram usage:       20 bytes
  3707 ;; Hardware stack levels used: 1
  3708 ;; This function calls:
  3709 ;;		Nothing
  3710 ;; This function is called by:
  3711 ;;		_map
  3712 ;; This function uses a non-reentrant model
  3713 ;;
  3714                           
  3715     0362                     ___fladd:	
  3716                           ;psect for function ___fladd
  3717                           
  3718     0362                     i1l1410:	
  3719                           ;incstack = 0
  3720                           ; Regs used in ___fladd: [wreg+status,2+status,0+btemp+1]
  3721                           
  3722     0362  1283               	bcf	3,5	;RP0=0, select bank0
  3723     0363  1303               	bcf	3,6	;RP1=0, select bank0
  3724     0364  0857               	movf	___fladd@b+3,w
  3725     0365  3980               	andlw	128
  3726     0366  00E4               	movwf	___fladd@signs
  3727     0367                     i1l1412:
  3728     0367  0857               	movf	___fladd@b+3,w
  3729     0368  00DC               	movwf	??___fladd
  3730     0369  075C               	addwf	??___fladd,w
  3731     036A  00E6               	movwf	___fladd@bexp
  3732     036B                     i1l1414:
  3733     036B  1FD6               	btfss	___fladd@b+2,7
  3734     036C  2B6E               	goto	u160_21
  3735     036D  2B6F               	goto	u160_20
  3736     036E                     u160_21:
  3737     036E  2B70               	goto	i1l1418
  3738     036F                     u160_20:
  3739     036F                     i1l1416:
  3740     036F  1466               	bsf	___fladd@bexp,0
  3741     0370                     i1l1418:
  3742     0370  0866               	movf	___fladd@bexp,w
  3743     0371  1903               	btfsc	3,2
  3744     0372  2B74               	goto	u161_21
  3745     0373  2B75               	goto	u161_20
  3746     0374                     u161_21:
  3747     0374  2B85               	goto	i1l1428
  3748     0375                     u161_20:
  3749     0375                     i1l1420:
  3750     0375  0A66               	incf	___fladd@bexp,w
  3751     0376  1D03               	btfss	3,2
  3752     0377  2B79               	goto	u162_21
  3753     0378  2B7A               	goto	u162_20
  3754     0379                     u162_21:
  3755     0379  2B82               	goto	i1l1424
  3756     037A                     u162_20:
  3757     037A                     i1l1422:
  3758     037A  3000               	movlw	0
  3759     037B  00D7               	movwf	___fladd@b+3
  3760     037C  3000               	movlw	0
  3761     037D  00D6               	movwf	___fladd@b+2
  3762     037E  3000               	movlw	0
  3763     037F  00D5               	movwf	___fladd@b+1
  3764     0380  3000               	movlw	0
  3765     0381  00D4               	movwf	___fladd@b
  3766     0382                     i1l1424:
  3767     0382  17D6               	bsf	___fladd@b+2,7
  3768     0383                     i1l1426:
  3769     0383  01D7               	clrf	___fladd@b+3
  3770     0384  2B8D               	goto	i1l1430
  3771     0385                     i1l1428:
  3772     0385  3000               	movlw	0
  3773     0386  00D7               	movwf	___fladd@b+3
  3774     0387  3000               	movlw	0
  3775     0388  00D6               	movwf	___fladd@b+2
  3776     0389  3000               	movlw	0
  3777     038A  00D5               	movwf	___fladd@b+1
  3778     038B  3000               	movlw	0
  3779     038C  00D4               	movwf	___fladd@b
  3780     038D                     i1l1430:
  3781     038D  085B               	movf	___fladd@a+3,w
  3782     038E  3980               	andlw	128
  3783     038F  00E5               	movwf	___fladd@aexp
  3784     0390                     i1l1432:
  3785     0390  0865               	movf	___fladd@aexp,w
  3786     0391  0664               	xorwf	___fladd@signs,w
  3787     0392  1903               	skipnz
  3788     0393  2B95               	goto	u163_21
  3789     0394  2B96               	goto	u163_20
  3790     0395                     u163_21:
  3791     0395  2B97               	goto	i1l1436
  3792     0396                     u163_20:
  3793     0396                     i1l1434:
  3794     0396  1764               	bsf	___fladd@signs,6
  3795     0397                     i1l1436:
  3796     0397  085B               	movf	___fladd@a+3,w
  3797     0398  00DC               	movwf	??___fladd
  3798     0399  075C               	addwf	??___fladd,w
  3799     039A  00E5               	movwf	___fladd@aexp
  3800     039B                     i1l1438:
  3801     039B  1FDA               	btfss	___fladd@a+2,7
  3802     039C  2B9E               	goto	u164_21
  3803     039D  2B9F               	goto	u164_20
  3804     039E                     u164_21:
  3805     039E  2BA0               	goto	i1l1442
  3806     039F                     u164_20:
  3807     039F                     i1l1440:
  3808     039F  1465               	bsf	___fladd@aexp,0
  3809     03A0                     i1l1442:
  3810     03A0  0865               	movf	___fladd@aexp,w
  3811     03A1  1903               	btfsc	3,2
  3812     03A2  2BA4               	goto	u165_21
  3813     03A3  2BA5               	goto	u165_20
  3814     03A4                     u165_21:
  3815     03A4  2BB5               	goto	i1l1452
  3816     03A5                     u165_20:
  3817     03A5                     i1l1444:
  3818     03A5  0A65               	incf	___fladd@aexp,w
  3819     03A6  1D03               	btfss	3,2
  3820     03A7  2BA9               	goto	u166_21
  3821     03A8  2BAA               	goto	u166_20
  3822     03A9                     u166_21:
  3823     03A9  2BB2               	goto	i1l1448
  3824     03AA                     u166_20:
  3825     03AA                     i1l1446:
  3826     03AA  3000               	movlw	0
  3827     03AB  00DB               	movwf	___fladd@a+3
  3828     03AC  3000               	movlw	0
  3829     03AD  00DA               	movwf	___fladd@a+2
  3830     03AE  3000               	movlw	0
  3831     03AF  00D9               	movwf	___fladd@a+1
  3832     03B0  3000               	movlw	0
  3833     03B1  00D8               	movwf	___fladd@a
  3834     03B2                     i1l1448:
  3835     03B2  17DA               	bsf	___fladd@a+2,7
  3836     03B3                     i1l1450:
  3837     03B3  01DB               	clrf	___fladd@a+3
  3838     03B4  2BBD               	goto	i1l477
  3839     03B5                     i1l1452:
  3840     03B5  3000               	movlw	0
  3841     03B6  00DB               	movwf	___fladd@a+3
  3842     03B7  3000               	movlw	0
  3843     03B8  00DA               	movwf	___fladd@a+2
  3844     03B9  3000               	movlw	0
  3845     03BA  00D9               	movwf	___fladd@a+1
  3846     03BB  3000               	movlw	0
  3847     03BC  00D8               	movwf	___fladd@a
  3848     03BD                     i1l477:
  3849     03BD  0866               	movf	___fladd@bexp,w
  3850     03BE  0265               	subwf	___fladd@aexp,w
  3851     03BF  1803               	skipnc
  3852     03C0  2BC2               	goto	u167_21
  3853     03C1  2BC3               	goto	u167_20
  3854     03C2                     u167_21:
  3855     03C2  2BE9               	goto	i1l1488
  3856     03C3                     u167_20:
  3857     03C3                     i1l1454:
  3858     03C3  1F64               	btfss	___fladd@signs,6
  3859     03C4  2BC6               	goto	u168_21
  3860     03C5  2BC7               	goto	u168_20
  3861     03C6                     u168_21:
  3862     03C6  2BCB               	goto	i1l1458
  3863     03C7                     u168_20:
  3864     03C7                     i1l1456:
  3865     03C7  3080               	movlw	128
  3866     03C8  00DC               	movwf	??___fladd
  3867     03C9  085C               	movf	??___fladd,w
  3868     03CA  06E4               	xorwf	___fladd@signs,f
  3869     03CB                     i1l1458:
  3870     03CB  0866               	movf	___fladd@bexp,w
  3871     03CC  00E7               	movwf	___fladd@grs
  3872     03CD                     i1l1460:
  3873     03CD  0865               	movf	___fladd@aexp,w
  3874     03CE  00E6               	movwf	___fladd@bexp
  3875     03CF                     i1l1462:
  3876     03CF  0867               	movf	___fladd@grs,w
  3877     03D0  00E5               	movwf	___fladd@aexp
  3878     03D1                     i1l1464:
  3879     03D1  0854               	movf	___fladd@b,w
  3880     03D2  00E7               	movwf	___fladd@grs
  3881     03D3                     i1l1466:
  3882     03D3  0858               	movf	___fladd@a,w
  3883     03D4  00D4               	movwf	___fladd@b
  3884     03D5                     i1l1468:
  3885     03D5  0867               	movf	___fladd@grs,w
  3886     03D6  00D8               	movwf	___fladd@a
  3887     03D7                     i1l1470:
  3888     03D7  0855               	movf	___fladd@b+1,w
  3889     03D8  00E7               	movwf	___fladd@grs
  3890     03D9                     i1l1472:
  3891     03D9  0859               	movf	___fladd@a+1,w
  3892     03DA  00D5               	movwf	___fladd@b+1
  3893     03DB                     i1l1474:
  3894     03DB  0867               	movf	___fladd@grs,w
  3895     03DC  00D9               	movwf	___fladd@a+1
  3896     03DD                     i1l1476:
  3897     03DD  0856               	movf	___fladd@b+2,w
  3898     03DE  00E7               	movwf	___fladd@grs
  3899     03DF                     i1l1478:
  3900     03DF  085A               	movf	___fladd@a+2,w
  3901     03E0  00D6               	movwf	___fladd@b+2
  3902     03E1                     i1l1480:
  3903     03E1  0867               	movf	___fladd@grs,w
  3904     03E2  00DA               	movwf	___fladd@a+2
  3905     03E3                     i1l1482:
  3906     03E3  0857               	movf	___fladd@b+3,w
  3907     03E4  00E7               	movwf	___fladd@grs
  3908     03E5                     i1l1484:
  3909     03E5  085B               	movf	___fladd@a+3,w
  3910     03E6  00D7               	movwf	___fladd@b+3
  3911     03E7                     i1l1486:
  3912     03E7  0867               	movf	___fladd@grs,w
  3913     03E8  00DB               	movwf	___fladd@a+3
  3914     03E9                     i1l1488:
  3915     03E9  01E7               	clrf	___fladd@grs
  3916     03EA                     i1l1490:
  3917     03EA  0865               	movf	___fladd@aexp,w
  3918     03EB  00DC               	movwf	??___fladd
  3919     03EC  01DD               	clrf	??___fladd+1
  3920     03ED  085D               	movf	??___fladd+1,w
  3921     03EE  00DF               	movwf	??___fladd+3
  3922     03EF  0866               	movf	___fladd@bexp,w
  3923     03F0  025C               	subwf	??___fladd,w
  3924     03F1  00DE               	movwf	??___fladd+2
  3925     03F2  1C03               	skipc
  3926     03F3  03DF               	decf	??___fladd+3,f
  3927     03F4  085F               	movf	??___fladd+3,w
  3928     03F5  3A80               	xorlw	128
  3929     03F6  00FF               	movwf	btemp+1
  3930     03F7  3080               	movlw	128
  3931     03F8  027F               	subwf	btemp+1,w
  3932     03F9  1D03               	skipz
  3933     03FA  2BFD               	goto	u169_25
  3934     03FB  301A               	movlw	26
  3935     03FC  025E               	subwf	??___fladd+2,w
  3936     03FD                     u169_25:
  3937     03FD  1C03               	skipc
  3938     03FE  2C00               	goto	u169_21
  3939     03FF  2C01               	goto	u169_20
  3940     0400                     u169_21:
  3941     0400  2C38               	goto	i1l1506
  3942     0401                     u169_20:
  3943     0401                     i1l1492:
  3944     0401  1283               	bcf	3,5	;RP0=0, select bank0
  3945     0402  1303               	bcf	3,6	;RP1=0, select bank0
  3946     0403  0857               	movf	___fladd@b+3,w
  3947     0404  0456               	iorwf	___fladd@b+2,w
  3948     0405  0455               	iorwf	___fladd@b+1,w
  3949     0406  0454               	iorwf	___fladd@b,w
  3950     0407  1D03               	skipz
  3951     0408  2C0A               	goto	u170_21
  3952     0409  2C0C               	goto	u170_20
  3953     040A                     u170_21:
  3954     040A  3001               	movlw	1
  3955     040B  2C0D               	goto	u171_20
  3956     040C                     u170_20:
  3957     040C  3000               	movlw	0
  3958     040D                     u171_20:
  3959     040D  00E7               	movwf	___fladd@grs
  3960     040E  3000               	movlw	0
  3961     040F  00D7               	movwf	___fladd@b+3
  3962     0410  3000               	movlw	0
  3963     0411  00D6               	movwf	___fladd@b+2
  3964     0412  3000               	movlw	0
  3965     0413  00D5               	movwf	___fladd@b+1
  3966     0414  3000               	movlw	0
  3967     0415  00D4               	movwf	___fladd@b
  3968     0416  0865               	movf	___fladd@aexp,w
  3969     0417  00E6               	movwf	___fladd@bexp
  3970     0418  2C40               	goto	i1l481
  3971     0419                     i1l483:
  3972     0419  1C67               	btfss	___fladd@grs,0
  3973     041A  2C1C               	goto	u172_21
  3974     041B  2C1D               	goto	u172_20
  3975     041C                     u172_21:
  3976     041C  2C24               	goto	i1l1496
  3977     041D                     u172_20:
  3978     041D                     i1l1494:
  3979     041D  0867               	movf	___fladd@grs,w
  3980     041E  00DC               	movwf	??___fladd
  3981     041F  1003               	clrc
  3982     0420  0C5C               	rrf	??___fladd,w
  3983     0421  3801               	iorlw	1
  3984     0422  00E7               	movwf	___fladd@grs
  3985     0423  2C26               	goto	i1l1498
  3986     0424                     i1l1496:
  3987     0424  1003               	clrc
  3988     0425  0CE7               	rrf	___fladd@grs,f
  3989     0426                     i1l1498:
  3990     0426  1C54               	btfss	___fladd@b,0
  3991     0427  2C29               	goto	u173_21
  3992     0428  2C2A               	goto	u173_20
  3993     0429                     u173_21:
  3994     0429  2C2B               	goto	i1l1502
  3995     042A                     u173_20:
  3996     042A                     i1l1500:
  3997     042A  17E7               	bsf	___fladd@grs,7
  3998     042B                     i1l1502:
  3999     042B  3001               	movlw	1
  4000     042C  00DC               	movwf	??___fladd
  4001     042D                     u174_25:
  4002     042D  0D57               	rlf	___fladd@b+3,w
  4003     042E  0CD7               	rrf	___fladd@b+3,f
  4004     042F  0CD6               	rrf	___fladd@b+2,f
  4005     0430  0CD5               	rrf	___fladd@b+1,f
  4006     0431  0CD4               	rrf	___fladd@b,f
  4007     0432  0BDC               	decfsz	??___fladd& (0+127),f
  4008     0433  2C2D               	goto	u174_25
  4009     0434                     i1l1504:
  4010     0434  3001               	movlw	1
  4011     0435  00DC               	movwf	??___fladd
  4012     0436  085C               	movf	??___fladd,w
  4013     0437  07E6               	addwf	___fladd@bexp,f
  4014     0438                     i1l1506:
  4015     0438  1283               	bcf	3,5	;RP0=0, select bank0
  4016     0439  1303               	bcf	3,6	;RP1=0, select bank0
  4017     043A  0865               	movf	___fladd@aexp,w
  4018     043B  0266               	subwf	___fladd@bexp,w
  4019     043C  1C03               	skipc
  4020     043D  2C3F               	goto	u175_21
  4021     043E  2C40               	goto	u175_20
  4022     043F                     u175_21:
  4023     043F  2C19               	goto	i1l483
  4024     0440                     u175_20:
  4025     0440                     i1l481:
  4026     0440  1B64               	btfsc	___fladd@signs,6
  4027     0441  2C43               	goto	u176_21
  4028     0442  2C44               	goto	u176_20
  4029     0443                     u176_21:
  4030     0443  2C8D               	goto	i1l1532
  4031     0444                     u176_20:
  4032     0444                     i1l1508:
  4033     0444  0866               	movf	___fladd@bexp,w
  4034     0445  1D03               	btfss	3,2
  4035     0446  2C48               	goto	u177_21
  4036     0447  2C49               	goto	u177_20
  4037     0448                     u177_21:
  4038     0448  2C52               	goto	i1l1514
  4039     0449                     u177_20:
  4040     0449                     i1l1510:
  4041     0449  3000               	movlw	0
  4042     044A  00D7               	movwf	?___fladd+3
  4043     044B  3000               	movlw	0
  4044     044C  00D6               	movwf	?___fladd+2
  4045     044D  3000               	movlw	0
  4046     044E  00D5               	movwf	?___fladd+1
  4047     044F  3000               	movlw	0
  4048     0450  00D4               	movwf	?___fladd
  4049     0451  2DB9               	goto	i1l490
  4050     0452                     i1l1514:
  4051     0452  0858               	movf	___fladd@a,w
  4052     0453  07D4               	addwf	___fladd@b,f
  4053     0454  0859               	movf	___fladd@a+1,w
  4054     0455  1103               	clrz
  4055     0456  1803               	skipnc
  4056     0457  3E01               	addlw	1
  4057     0458  1903               	skipnz
  4058     0459  2C5B               	goto	u178_21
  4059     045A  07D5               	addwf	___fladd@b+1,f
  4060     045B                     u178_21:
  4061     045B  085A               	movf	___fladd@a+2,w
  4062     045C  1103               	clrz
  4063     045D  1803               	skipnc
  4064     045E  3E01               	addlw	1
  4065     045F  1903               	skipnz
  4066     0460  2C62               	goto	u178_22
  4067     0461  07D6               	addwf	___fladd@b+2,f
  4068     0462                     u178_22:
  4069     0462  085B               	movf	___fladd@a+3,w
  4070     0463  1103               	clrz
  4071     0464  1803               	skipnc
  4072     0465  3E01               	addlw	1
  4073     0466  1903               	skipnz
  4074     0467  2C69               	goto	u178_23
  4075     0468  07D7               	addwf	___fladd@b+3,f
  4076     0469                     u178_23:
  4077     0469                     i1l1516:
  4078     0469  1C57               	btfss	___fladd@b+3,0
  4079     046A  2C6C               	goto	u179_21
  4080     046B  2C6D               	goto	u179_20
  4081     046C                     u179_21:
  4082     046C  2D41               	goto	i1l1566
  4083     046D                     u179_20:
  4084     046D                     i1l1518:
  4085     046D  1C67               	btfss	___fladd@grs,0
  4086     046E  2C70               	goto	u180_21
  4087     046F  2C71               	goto	u180_20
  4088     0470                     u180_21:
  4089     0470  2C78               	goto	i1l1522
  4090     0471                     u180_20:
  4091     0471                     i1l1520:
  4092     0471  0867               	movf	___fladd@grs,w
  4093     0472  00DC               	movwf	??___fladd
  4094     0473  1003               	clrc
  4095     0474  0C5C               	rrf	??___fladd,w
  4096     0475  3801               	iorlw	1
  4097     0476  00E7               	movwf	___fladd@grs
  4098     0477  2C7A               	goto	i1l1524
  4099     0478                     i1l1522:
  4100     0478  1003               	clrc
  4101     0479  0CE7               	rrf	___fladd@grs,f
  4102     047A                     i1l1524:
  4103     047A  1C54               	btfss	___fladd@b,0
  4104     047B  2C7D               	goto	u181_21
  4105     047C  2C7E               	goto	u181_20
  4106     047D                     u181_21:
  4107     047D  2C7F               	goto	i1l1528
  4108     047E                     u181_20:
  4109     047E                     i1l1526:
  4110     047E  17E7               	bsf	___fladd@grs,7
  4111     047F                     i1l1528:
  4112     047F  3001               	movlw	1
  4113     0480  00DC               	movwf	??___fladd
  4114     0481                     u182_25:
  4115     0481  0D57               	rlf	___fladd@b+3,w
  4116     0482  0CD7               	rrf	___fladd@b+3,f
  4117     0483  0CD6               	rrf	___fladd@b+2,f
  4118     0484  0CD5               	rrf	___fladd@b+1,f
  4119     0485  0CD4               	rrf	___fladd@b,f
  4120     0486  0BDC               	decfsz	??___fladd& (0+127),f
  4121     0487  2C81               	goto	u182_25
  4122     0488                     i1l1530:
  4123     0488  3001               	movlw	1
  4124     0489  00DC               	movwf	??___fladd
  4125     048A  085C               	movf	??___fladd,w
  4126     048B  07E6               	addwf	___fladd@bexp,f
  4127     048C  2D41               	goto	i1l1566
  4128     048D                     i1l1532:
  4129     048D  0857               	movf	___fladd@b+3,w
  4130     048E  3A80               	xorlw	128
  4131     048F  00FF               	movwf	btemp+1
  4132     0490  085B               	movf	___fladd@a+3,w
  4133     0491  3A80               	xorlw	128
  4134     0492  027F               	subwf	btemp+1,w
  4135     0493  1D03               	skipz
  4136     0494  2C9F               	goto	u183_23
  4137     0495  085A               	movf	___fladd@a+2,w
  4138     0496  0256               	subwf	___fladd@b+2,w
  4139     0497  1D03               	skipz
  4140     0498  2C9F               	goto	u183_23
  4141     0499  0859               	movf	___fladd@a+1,w
  4142     049A  0255               	subwf	___fladd@b+1,w
  4143     049B  1D03               	skipz
  4144     049C  2C9F               	goto	u183_23
  4145     049D  0858               	movf	___fladd@a,w
  4146     049E  0254               	subwf	___fladd@b,w
  4147     049F                     u183_23:
  4148     049F  1803               	skipnc
  4149     04A0  2CA2               	goto	u183_21
  4150     04A1  2CA3               	goto	u183_20
  4151     04A2                     u183_21:
  4152     04A2  2CFB               	goto	i1l1542
  4153     04A3                     u183_20:
  4154     04A3                     i1l1534:
  4155     04A3  30FF               	movlw	255
  4156     04A4  00DC               	movwf	??___fladd
  4157     04A5  30FF               	movlw	255
  4158     04A6  00DD               	movwf	??___fladd+1
  4159     04A7  30FF               	movlw	255
  4160     04A8  00DE               	movwf	??___fladd+2
  4161     04A9  30FF               	movlw	255
  4162     04AA  00DF               	movwf	??___fladd+3
  4163     04AB  0858               	movf	___fladd@a,w
  4164     04AC  00E0               	movwf	??___fladd+4
  4165     04AD  0859               	movf	___fladd@a+1,w
  4166     04AE  00E1               	movwf	??___fladd+5
  4167     04AF  085A               	movf	___fladd@a+2,w
  4168     04B0  00E2               	movwf	??___fladd+6
  4169     04B1  085B               	movf	___fladd@a+3,w
  4170     04B2  00E3               	movwf	??___fladd+7
  4171     04B3  0854               	movf	___fladd@b,w
  4172     04B4  02E0               	subwf	??___fladd+4,f
  4173     04B5  0855               	movf	___fladd@b+1,w
  4174     04B6  1C03               	skipc
  4175     04B7  0F55               	incfsz	___fladd@b+1,w
  4176     04B8  2CBA               	goto	u184_21
  4177     04B9  2CBB               	goto	u184_22
  4178     04BA                     u184_21:
  4179     04BA  02E1               	subwf	??___fladd+5,f
  4180     04BB                     u184_22:
  4181     04BB  0856               	movf	___fladd@b+2,w
  4182     04BC  1C03               	skipc
  4183     04BD  0F56               	incfsz	___fladd@b+2,w
  4184     04BE  2CC0               	goto	u184_23
  4185     04BF  2CC1               	goto	u184_24
  4186     04C0                     u184_23:
  4187     04C0  02E2               	subwf	??___fladd+6,f
  4188     04C1                     u184_24:
  4189     04C1  0857               	movf	___fladd@b+3,w
  4190     04C2  1C03               	skipc
  4191     04C3  0F57               	incfsz	___fladd@b+3,w
  4192     04C4  2CC6               	goto	u184_25
  4193     04C5  2CC7               	goto	u184_26
  4194     04C6                     u184_25:
  4195     04C6  02E3               	subwf	??___fladd+7,f
  4196     04C7                     u184_26:
  4197     04C7  0860               	movf	??___fladd+4,w
  4198     04C8  07DC               	addwf	??___fladd,f
  4199     04C9  0861               	movf	??___fladd+5,w
  4200     04CA  1803               	skipnc
  4201     04CB  0F61               	incfsz	??___fladd+5,w
  4202     04CC  2CCE               	goto	u185_20
  4203     04CD  2CCF               	goto	u185_21
  4204     04CE                     u185_20:
  4205     04CE  07DD               	addwf	??___fladd+1,f
  4206     04CF                     u185_21:
  4207     04CF  0862               	movf	??___fladd+6,w
  4208     04D0  1803               	skipnc
  4209     04D1  0F62               	incfsz	??___fladd+6,w
  4210     04D2  2CD4               	goto	u185_22
  4211     04D3  2CD5               	goto	u185_23
  4212     04D4                     u185_22:
  4213     04D4  07DE               	addwf	??___fladd+2,f
  4214     04D5                     u185_23:
  4215     04D5  0863               	movf	??___fladd+7,w
  4216     04D6  1803               	skipnc
  4217     04D7  0A63               	incf	??___fladd+7,w
  4218     04D8  07DF               	addwf	??___fladd+3,f
  4219     04D9  085F               	movf	??___fladd+3,w
  4220     04DA  00D7               	movwf	___fladd@b+3
  4221     04DB  085E               	movf	??___fladd+2,w
  4222     04DC  00D6               	movwf	___fladd@b+2
  4223     04DD  085D               	movf	??___fladd+1,w
  4224     04DE  00D5               	movwf	___fladd@b+1
  4225     04DF  085C               	movf	??___fladd,w
  4226     04E0  00D4               	movwf	___fladd@b
  4227     04E1                     i1l1536:
  4228     04E1  3080               	movlw	128
  4229     04E2  00DC               	movwf	??___fladd
  4230     04E3  085C               	movf	??___fladd,w
  4231     04E4  06E4               	xorwf	___fladd@signs,f
  4232     04E5  09E7               	comf	___fladd@grs,f
  4233     04E6  0AE7               	incf	___fladd@grs,f
  4234     04E7                     i1l1538:
  4235     04E7  0867               	movf	___fladd@grs,w
  4236     04E8  1D03               	btfss	3,2
  4237     04E9  2CEB               	goto	u186_21
  4238     04EA  2CEC               	goto	u186_20
  4239     04EB                     u186_21:
  4240     04EB  2D09               	goto	i1l498
  4241     04EC                     u186_20:
  4242     04EC                     i1l1540:
  4243     04EC  3001               	movlw	1
  4244     04ED  07D4               	addwf	___fladd@b,f
  4245     04EE  3000               	movlw	0
  4246     04EF  1803               	skipnc
  4247     04F0  3001               	movlw	1
  4248     04F1  07D5               	addwf	___fladd@b+1,f
  4249     04F2  3000               	movlw	0
  4250     04F3  1803               	skipnc
  4251     04F4  3001               	movlw	1
  4252     04F5  07D6               	addwf	___fladd@b+2,f
  4253     04F6  3000               	movlw	0
  4254     04F7  1803               	skipnc
  4255     04F8  3001               	movlw	1
  4256     04F9  07D7               	addwf	___fladd@b+3,f
  4257     04FA  2D09               	goto	i1l498
  4258     04FB                     i1l1542:
  4259     04FB  0858               	movf	___fladd@a,w
  4260     04FC  02D4               	subwf	___fladd@b,f
  4261     04FD  0859               	movf	___fladd@a+1,w
  4262     04FE  1C03               	skipc
  4263     04FF  0F59               	incfsz	___fladd@a+1,w
  4264     0500  02D5               	subwf	___fladd@b+1,f
  4265     0501  085A               	movf	___fladd@a+2,w
  4266     0502  1C03               	skipc
  4267     0503  0F5A               	incfsz	___fladd@a+2,w
  4268     0504  02D6               	subwf	___fladd@b+2,f
  4269     0505  085B               	movf	___fladd@a+3,w
  4270     0506  1C03               	skipc
  4271     0507  0F5B               	incfsz	___fladd@a+3,w
  4272     0508  02D7               	subwf	___fladd@b+3,f
  4273     0509                     i1l498:
  4274     0509  0857               	movf	___fladd@b+3,w
  4275     050A  0456               	iorwf	___fladd@b+2,w
  4276     050B  0455               	iorwf	___fladd@b+1,w
  4277     050C  0454               	iorwf	___fladd@b,w
  4278     050D  1D03               	skipz
  4279     050E  2D10               	goto	u187_21
  4280     050F  2D11               	goto	u187_20
  4281     0510                     u187_21:
  4282     0510  2D3D               	goto	i1l1564
  4283     0511                     u187_20:
  4284     0511                     i1l1544:
  4285     0511  0867               	movf	___fladd@grs,w
  4286     0512  1D03               	btfss	3,2
  4287     0513  2D15               	goto	u188_21
  4288     0514  2D16               	goto	u188_20
  4289     0515                     u188_21:
  4290     0515  2D3D               	goto	i1l1564
  4291     0516                     u188_20:
  4292     0516                     i1l1546:
  4293     0516  3000               	movlw	0
  4294     0517  00D7               	movwf	?___fladd+3
  4295     0518  3000               	movlw	0
  4296     0519  00D6               	movwf	?___fladd+2
  4297     051A  3000               	movlw	0
  4298     051B  00D5               	movwf	?___fladd+1
  4299     051C  3000               	movlw	0
  4300     051D  00D4               	movwf	?___fladd
  4301     051E  2DB9               	goto	i1l490
  4302     051F                     i1l1550:
  4303     051F  3001               	movlw	1
  4304     0520  00DC               	movwf	??___fladd
  4305     0521                     u189_25:
  4306     0521  1003               	clrc
  4307     0522  0DD4               	rlf	___fladd@b,f
  4308     0523  0DD5               	rlf	___fladd@b+1,f
  4309     0524  0DD6               	rlf	___fladd@b+2,f
  4310     0525  0DD7               	rlf	___fladd@b+3,f
  4311     0526  0BDC               	decfsz	??___fladd,f
  4312     0527  2D21               	goto	u189_25
  4313     0528                     i1l1552:
  4314     0528  1FE7               	btfss	___fladd@grs,7
  4315     0529  2D2B               	goto	u190_21
  4316     052A  2D2C               	goto	u190_20
  4317     052B                     u190_21:
  4318     052B  2D2D               	goto	i1l502
  4319     052C                     u190_20:
  4320     052C                     i1l1554:
  4321     052C  1454               	bsf	___fladd@b,0
  4322     052D                     i1l502:
  4323     052D  1C67               	btfss	___fladd@grs,0
  4324     052E  2D30               	goto	u191_21
  4325     052F  2D31               	goto	u191_20
  4326     0530                     u191_21:
  4327     0530  2D34               	goto	i1l1558
  4328     0531                     u191_20:
  4329     0531                     i1l1556:
  4330     0531  1403               	setc
  4331     0532  0DE7               	rlf	___fladd@grs,f
  4332     0533  2D36               	goto	i1l1560
  4333     0534                     i1l1558:
  4334     0534  1003               	clrc
  4335     0535  0DE7               	rlf	___fladd@grs,f
  4336     0536                     i1l1560:
  4337     0536  0866               	movf	___fladd@bexp,w
  4338     0537  1903               	btfsc	3,2
  4339     0538  2D3A               	goto	u192_21
  4340     0539  2D3B               	goto	u192_20
  4341     053A                     u192_21:
  4342     053A  2D3D               	goto	i1l1564
  4343     053B                     u192_20:
  4344     053B                     i1l1562:
  4345     053B  3001               	movlw	1
  4346     053C  02E6               	subwf	___fladd@bexp,f
  4347     053D                     i1l1564:
  4348     053D  1FD6               	btfss	___fladd@b+2,7
  4349     053E  2D40               	goto	u193_21
  4350     053F  2D41               	goto	u193_20
  4351     0540                     u193_21:
  4352     0540  2D1F               	goto	i1l1550
  4353     0541                     u193_20:
  4354     0541                     i1l1566:
  4355     0541  01E5               	clrf	___fladd@aexp
  4356     0542                     i1l1568:
  4357     0542  1FE7               	btfss	___fladd@grs,7
  4358     0543  2D45               	goto	u194_21
  4359     0544  2D46               	goto	u194_20
  4360     0545                     u194_21:
  4361     0545  2D54               	goto	i1l1576
  4362     0546                     u194_20:
  4363     0546                     i1l1570:
  4364     0546  0867               	movf	___fladd@grs,w
  4365     0547  397F               	andlw	127
  4366     0548  1903               	btfsc	3,2
  4367     0549  2D4B               	goto	u195_21
  4368     054A  2D4C               	goto	u195_20
  4369     054B                     u195_21:
  4370     054B  2D4F               	goto	i1l508
  4371     054C                     u195_20:
  4372     054C                     i1l1572:
  4373     054C  01E5               	clrf	___fladd@aexp
  4374     054D  0AE5               	incf	___fladd@aexp,f
  4375     054E  2D54               	goto	i1l1576
  4376     054F                     i1l508:
  4377     054F  1C54               	btfss	___fladd@b,0
  4378     0550  2D52               	goto	u196_21
  4379     0551  2D53               	goto	u196_20
  4380     0552                     u196_21:
  4381     0552  2D54               	goto	i1l1576
  4382     0553                     u196_20:
  4383     0553  2D4C               	goto	i1l1572
  4384     0554                     i1l1576:
  4385     0554  0865               	movf	___fladd@aexp,w
  4386     0555  1903               	btfsc	3,2
  4387     0556  2D58               	goto	u197_21
  4388     0557  2D59               	goto	u197_20
  4389     0558                     u197_21:
  4390     0558  2D8D               	goto	i1l511
  4391     0559                     u197_20:
  4392     0559                     i1l1578:
  4393     0559  3001               	movlw	1
  4394     055A  07D4               	addwf	___fladd@b,f
  4395     055B  3000               	movlw	0
  4396     055C  1803               	skipnc
  4397     055D  3001               	movlw	1
  4398     055E  07D5               	addwf	___fladd@b+1,f
  4399     055F  3000               	movlw	0
  4400     0560  1803               	skipnc
  4401     0561  3001               	movlw	1
  4402     0562  07D6               	addwf	___fladd@b+2,f
  4403     0563  3000               	movlw	0
  4404     0564  1803               	skipnc
  4405     0565  3001               	movlw	1
  4406     0566  07D7               	addwf	___fladd@b+3,f
  4407     0567                     i1l1580:
  4408     0567  1C57               	btfss	___fladd@b+3,0
  4409     0568  2D6A               	goto	u198_21
  4410     0569  2D6B               	goto	u198_20
  4411     056A                     u198_21:
  4412     056A  2D8D               	goto	i1l511
  4413     056B                     u198_20:
  4414     056B                     i1l1582:
  4415     056B  0854               	movf	___fladd@b,w
  4416     056C  00DC               	movwf	??___fladd
  4417     056D  0855               	movf	___fladd@b+1,w
  4418     056E  00DD               	movwf	??___fladd+1
  4419     056F  0856               	movf	___fladd@b+2,w
  4420     0570  00DE               	movwf	??___fladd+2
  4421     0571  0857               	movf	___fladd@b+3,w
  4422     0572  00DF               	movwf	??___fladd+3
  4423     0573  3001               	movlw	1
  4424     0574  00E0               	movwf	??___fladd+4
  4425     0575                     u199_25:
  4426     0575  0D5F               	rlf	??___fladd+3,w
  4427     0576  0CDF               	rrf	??___fladd+3,f
  4428     0577  0CDE               	rrf	??___fladd+2,f
  4429     0578  0CDD               	rrf	??___fladd+1,f
  4430     0579  0CDC               	rrf	??___fladd,f
  4431     057A                     u199_20:
  4432     057A  0BE0               	decfsz	??___fladd+4,f
  4433     057B  2D75               	goto	u199_25
  4434     057C  085F               	movf	??___fladd+3,w
  4435     057D  00D7               	movwf	___fladd@b+3
  4436     057E  085E               	movf	??___fladd+2,w
  4437     057F  00D6               	movwf	___fladd@b+2
  4438     0580  085D               	movf	??___fladd+1,w
  4439     0581  00D5               	movwf	___fladd@b+1
  4440     0582  085C               	movf	??___fladd,w
  4441     0583  00D4               	movwf	___fladd@b
  4442     0584  0A66               	incf	___fladd@bexp,w
  4443     0585  1903               	btfsc	3,2
  4444     0586  2D88               	goto	u200_21
  4445     0587  2D89               	goto	u200_20
  4446     0588                     u200_21:
  4447     0588  2D8D               	goto	i1l511
  4448     0589                     u200_20:
  4449     0589                     i1l1584:
  4450     0589  3001               	movlw	1
  4451     058A  00DC               	movwf	??___fladd
  4452     058B  085C               	movf	??___fladd,w
  4453     058C  07E6               	addwf	___fladd@bexp,f
  4454     058D                     i1l511:
  4455     058D  0A66               	incf	___fladd@bexp,w
  4456     058E  1903               	btfsc	3,2
  4457     058F  2D91               	goto	u201_21
  4458     0590  2D92               	goto	u201_20
  4459     0591                     u201_21:
  4460     0591  2D97               	goto	i1l1588
  4461     0592                     u201_20:
  4462     0592                     i1l1586:
  4463     0592  0866               	movf	___fladd@bexp,w
  4464     0593  1D03               	btfss	3,2
  4465     0594  2D96               	goto	u202_21
  4466     0595  2D97               	goto	u202_20
  4467     0596                     u202_21:
  4468     0596  2DA5               	goto	i1l1594
  4469     0597                     u202_20:
  4470     0597                     i1l1588:
  4471     0597  3000               	movlw	0
  4472     0598  00D7               	movwf	___fladd@b+3
  4473     0599  3000               	movlw	0
  4474     059A  00D6               	movwf	___fladd@b+2
  4475     059B  3000               	movlw	0
  4476     059C  00D5               	movwf	___fladd@b+1
  4477     059D  3000               	movlw	0
  4478     059E  00D4               	movwf	___fladd@b
  4479     059F                     i1l1590:
  4480     059F  0866               	movf	___fladd@bexp,w
  4481     05A0  1D03               	btfss	3,2
  4482     05A1  2DA3               	goto	u203_21
  4483     05A2  2DA4               	goto	u203_20
  4484     05A3                     u203_21:
  4485     05A3  2DA5               	goto	i1l1594
  4486     05A4                     u203_20:
  4487     05A4                     i1l1592:
  4488     05A4  01E4               	clrf	___fladd@signs
  4489     05A5                     i1l1594:
  4490     05A5  1C66               	btfss	___fladd@bexp,0
  4491     05A6  2DA8               	goto	u204_21
  4492     05A7  2DA9               	goto	u204_20
  4493     05A8                     u204_21:
  4494     05A8  2DAB               	goto	i1l1598
  4495     05A9                     u204_20:
  4496     05A9                     i1l1596:
  4497     05A9  17D6               	bsf	___fladd@b+2,7
  4498     05AA  2DAF               	goto	i1l519
  4499     05AB                     i1l1598:
  4500     05AB  307F               	movlw	127
  4501     05AC  00DC               	movwf	??___fladd
  4502     05AD  085C               	movf	??___fladd,w
  4503     05AE  05D6               	andwf	___fladd@b+2,f
  4504     05AF                     i1l519:
  4505     05AF  0866               	movf	___fladd@bexp,w
  4506     05B0  00DC               	movwf	??___fladd
  4507     05B1  1003               	clrc
  4508     05B2  0C5C               	rrf	??___fladd,w
  4509     05B3  00D7               	movwf	___fladd@b+3
  4510     05B4                     i1l1600:
  4511     05B4  1FE4               	btfss	___fladd@signs,7
  4512     05B5  2DB7               	goto	u205_21
  4513     05B6  2DB8               	goto	u205_20
  4514     05B7                     u205_21:
  4515     05B7  2DB9               	goto	i1l520
  4516     05B8                     u205_20:
  4517     05B8                     i1l1602:
  4518     05B8  17D7               	bsf	___fladd@b+3,7
  4519     05B9                     i1l520:
  4520     05B9                     i1l490:
  4521     05B9  0008               	return
  4522     05BA                     __end_of___fladd:
  4523     007E                     btemp	set	126	;btemp
  4524     007E                     wtemp0	set	126
  4525                           
  4526                           	psect	idloc
  4527                           
  4528                           ;Config register IDLOC0 @ 0x2000
  4529                           ;	unspecified, using default values
  4530     2000                     	org	8192
  4531     2000  3FFF               	dw	16383
  4532                           
  4533                           ;Config register IDLOC1 @ 0x2001
  4534                           ;	unspecified, using default values
  4535     2001                     	org	8193
  4536     2001  3FFF               	dw	16383
  4537                           
  4538                           ;Config register IDLOC2 @ 0x2002
  4539                           ;	unspecified, using default values
  4540     2002                     	org	8194
  4541     2002  3FFF               	dw	16383
  4542                           
  4543                           ;Config register IDLOC3 @ 0x2003
  4544                           ;	unspecified, using default values
  4545     2003                     	org	8195
  4546     2003  3FFF               	dw	16383
  4547                           
  4548                           	psect	config
  4549                           
  4550                           ;Config register CONFIG1 @ 0x2007
  4551                           ;	Oscillator Selection bits
  4552                           ;	FOSC = INTRC_NOCLKOUT, INTOSCIO oscillator: I/O function on RA6/OSC2/CLKOUT pin, I/O f
      +                          unction on RA7/OSC1/CLKIN
  4553                           ;	Watchdog Timer Enable bit
  4554                           ;	WDTE = OFF, WDT disabled and can be enabled by SWDTEN bit of the WDTCON register
  4555                           ;	Power-up Timer Enable bit
  4556                           ;	PWRTE = OFF, PWRT disabled
  4557                           ;	RE3/MCLR pin function select bit
  4558                           ;	MCLRE = OFF, RE3/MCLR pin function is digital input, MCLR internally tied to VDD
  4559                           ;	Code Protection bit
  4560                           ;	CP = OFF, Program memory code protection is disabled
  4561                           ;	Data Code Protection bit
  4562                           ;	CPD = OFF, Data memory code protection is disabled
  4563                           ;	Brown Out Reset Selection bits
  4564                           ;	BOREN = OFF, BOR disabled
  4565                           ;	Internal External Switchover bit
  4566                           ;	IESO = OFF, Internal/External Switchover mode is disabled
  4567                           ;	Fail-Safe Clock Monitor Enabled bit
  4568                           ;	FCMEN = OFF, Fail-Safe Clock Monitor is disabled
  4569                           ;	Low Voltage Programming Enable bit
  4570                           ;	LVP = OFF, RB3 pin has digital I/O, HV on MCLR must be used for programming
  4571                           ;	In-Circuit Debugger Mode bit
  4572                           ;	DEBUG = 0x1, unprogramme  4573     2007                     	org	8199
  4574     2007  20D4               	dw	8404
  4575                           
  4576                           ;Config register CONFIG2 @ 0x2008
  4577                           ;	Brown-out Reset Selection bit
  4578                           ;	BOR4V = BOR40V, Brown-out Reset set to 4.0V
  4579                           ;	Flash Program Memory Self Write Enable bits
  4580                           ;	WRT = OFF, Write protection off
  4581     2008                     	org	8200
  4582     2008  3FFF               	dw	16383

Data Sizes:
    Strings     0
    Constant    0
    Data        0
    BSS         4
    Persistent  0
    Stack       0

Auto Spaces:
    Space          Size  Autos    Used
    COMMON           14     14      14
    BANK0            80     80      80
    BANK1            80     17      21
    BANK3            96      0       0
    BANK2            96      0       0

Pointer List with Targets:

    None.

Critical Paths under _main in COMMON

    None.

Critical Paths under _isr in COMMON

    _map->___xxtofl
    ___fltol->___xxtofl
    ___flmul->___xxtofl
    ___fldiv->___xxtofl
    ___fladd->___xxtofl

Critical Paths under _main in BANK0

    None.

Critical Paths under _isr in BANK0

    _map->___fltol
    ___fltol->___fladd
    ___flmul->___fldiv
    ___fladd->___flmul

Critical Paths under _main in BANK1

    _main->_setupADC

Critical Paths under _isr in BANK1

    _isr->_map
    _map->___fltol

Critical Paths under _main in BANK3

    None.

Critical Paths under _isr in BANK3

    None.

Critical Paths under _main in BANK2

    None.

Critical Paths under _isr in BANK2

    None.

Call Graph Tables:

 ---------------------------------------------------------------------------------
 (Depth) Function   	        Calls       Base Space   Used Autos Params    Refs
 ---------------------------------------------------------------------------------
 (0) _main                                                 2     2      0       0
                                             15 BANK1      2     2      0
                              _setup
                           _setupADC
                           _setupPWM
 ---------------------------------------------------------------------------------
 (1) _setupPWM                                             0     0      0       0
 ---------------------------------------------------------------------------------
 (1) _setupADC                                             1     1      0       0
                                             14 BANK1      1     1      0
 ---------------------------------------------------------------------------------
 (1) _setup                                                0     0      0       0
 ---------------------------------------------------------------------------------
 Estimated maximum stack depth 1
 ---------------------------------------------------------------------------------
 (Depth) Function   	        Calls       Base Space   Used Autos Params    Refs
 ---------------------------------------------------------------------------------
 (2) _isr                                                  5     5      0    7645
                                              9 BANK1      5     5      0
                                _map
 ---------------------------------------------------------------------------------
 (3) _map                                                  7     1      6    7645
                                              2 BANK1      7     1      6
                            ___fladd
                            ___fldiv
                            ___flmul
                            ___fltol
                           ___xxtofl
 ---------------------------------------------------------------------------------
 (4) ___xxtofl                                            14    10      4     626
                                              0 COMMON    14    10      4
 ---------------------------------------------------------------------------------
 (4) ___fltol                                             10     6      4     305
                                             72 BANK0      8     4      4
                                              0 BANK1      2     2      0
                            ___fladd (ARG)
                            ___fldiv (ARG)
                            ___flmul (ARG)
                           ___xxtofl (ARG)
 ---------------------------------------------------------------------------------
 (4) ___flmul                                             26    18      8    2417
                                             26 BANK0     26    18      8
                          __Umul8_16
                            ___fldiv (ARG)
                           ___xxtofl (ARG)
 ---------------------------------------------------------------------------------
 (5) __Umul8_16                                            9     7      2     799
                                              0 COMMON     9     7      2
 ---------------------------------------------------------------------------------
 (4) ___fldiv                                             26    18      8    1273
                                              0 BANK0     26    18      8
                           ___xxtofl (ARG)
 ---------------------------------------------------------------------------------
 (4) ___fladd                                             20    12      8    2262
                                             52 BANK0     20    12      8
                            ___fldiv (ARG)
                            ___flmul (ARG)
                           ___xxtofl (ARG)
 ---------------------------------------------------------------------------------
 Estimated maximum stack depth 5
 ---------------------------------------------------------------------------------

 Call Graph Graphs:

 _main (ROOT)
   _setup
   _setupADC
   _setupPWM

 _isr (ROOT)
   _map
     ___fladd
       ___fldiv (ARG)
         ___xxtofl (ARG)
       ___flmul (ARG)
         __Umul8_16
         ___fldiv (ARG)
         ___xxtofl (ARG)
       ___xxtofl (ARG)
     ___fldiv
     ___flmul
     ___fltol
       ___fladd (ARG)
       ___fldiv (ARG)
       ___flmul (ARG)
       ___xxtofl (ARG)
     ___xxtofl

 Address spaces:
Name               Size   Autos  Total    Cost      Usage
BITCOMMON            E      0       0       0        0.0%
EEDATA             100      0       0       0        0.0%
NULL                 0      0       0       0        0.0%
CODE                 0      0       0       0        0.0%
COMMON               E      E       E       1      100.0%
BITSFR0              0      0       0       1        0.0%
SFR0                 0      0       0       1        0.0%
BITSFR1              0      0       0       2        0.0%
SFR1                 0      0       0       2        0.0%
STACK                0      0       0       2        0.0%
ABS                  0      0      73       3        0.0%
BITBANK0            50      0       0       4        0.0%
BITSFR3              0      0       0       4        0.0%
SFR3                 0      0       0       4        0.0%
BANK0               50     50      50       5      100.0%
BITSFR2              0      0       0       5        0.0%
SFR2                 0      0       0       5        0.0%
BITBANK1            50      0       0       6        0.0%
BANK1               50     11      15       7       26.2%
BITBANK3            60      0       0       8        0.0%
BANK3               60      0       0       9        0.0%
BITBANK2            60      0       0      10        0.0%
BANK2               60      0       0      11        0.0%
DATA                 0      0      73      12        0.0%


Microchip Technology PIC Macro Assembler V2.40 build 20220703182018 
Symbol Table                                                                                   Fri Mar 31 18:27:51 2023

           ___fldiv@aexp 0039             ___fldiv@bexp 0038             ___fldiv@sign 0031  
                     l91 0D58                       l92 0D5D                       l86 0D0A  
                     l95 07F8                       l89 0D54      __Umul8_16@word_mpld 0076  
                    _PR2 0092                      _map 0DEC                      _isr 0E9A  
           ___flmul@aexp 004C             ___flmul@bexp 004D             ___flmul@sign 0047  
           ___flmul@temp 0052             ___flmul@prod 004E             ___fltol@exp1 00A1  
                   l2020 07B7                     l2012 078D                     l2022 07BE  
                   l2014 079C                     l2024 07CB                     l2016 07A6  
                   l2026 07CF                     l2018 07AC                     l2028 07D1  
                   l1940 0D03                     l1942 0D04                     l1934 0CEE  
                   l1950 0D32                     l1944 0D05                     l1936 0CF2  
                   l1960 0D3E                     l1952 0D36                     l1946 0D06  
                   l1938 0CFD                     l1970 0D4F                     l1962 0D42  
                   l1954 0D38                     l1948 0D07                     l1980 07E0  
                   l1972 0D50                     l1964 0D46                     l1956 0D3B  
                   l1982 07E3                     l1974 0D51                     l1966 0D4C  
                   l1958 0D3C                     ?_map 00A2                     l1984 07EA  
                   l1976 0D53                     l1968 0D4E                     l1986 07ED  
                   l1978 07DC                     l1988 07F0                     ?_isr 0070  
                   u2900 07AC                     u2901 07AB                     u2910 07B7  
                   u2911 07B6                     u2920 07CB                     u2921 07CA  
                   u2860 0D58                     u2861 0D57                     u2937 07A2  
                   u2947 07D5                     u2957 07F4                     i1l71 0F3D  
                   i1l98 0E99                     _main 078D                     btemp 007E  
                   start 0010          ___fldiv@new_exp 0032                    ??_map 007E  
                  ??_isr 00A9            ___fltol@sign1 00A0          __end_of___fladd 05BA  
                  ?_main 0070          __end_of___fldiv 078D          __end_of___flmul 0362  
        __end_of___fltol 0DEC                    i1l502 052D                    i1l511 058D  
                  i1l520 05B9                    i1l370 0DEB                    i1l508 054F  
                  i1l380 0DEB                    i1l533 0610                    i1l630 0FC9  
                  i1l519 05AF                    i1l535 078C                    i1l631 0FD5  
                  i1l623 0FAD                    i1l481 0440                    i1l377 0DD4  
                  i1l617 0F6A                    i1l490 05B9                    i1l483 0419  
                  i1l555 0774                    i1l619 0FFF                    i1l477 03BD  
                  i1l557 0782                    i1l549 0702                    i1l573 0361  
                  i1l592 0D1F                    i1l585 0355                    i1l498 0509  
                  i1l594 0D31                    i1l579 02D1                    _PORTA 0005  
                  _PORTB 0006                    _PORTC 0007                    _PORTD 0008  
                  _PORTE 0009                    _TRISC 0087                    _setup 0CEE  
                  pclath 000A                    status 0003                    wtemp0 007E  
        __initialization 0013             __end_of_main 07DC                   ??_main 00AF  
                 _ADRESH 001E                   _CCPR1L 0015                   _CCPR2L 001B  
                 ?_setup 0070                   _ANSELH 0189                   i1l2000 0EE4  
                 i1l2002 0EF1                   i1l2010 0F3B                   i1l2004 0F0A  
                 i1l2006 0F18                   i1l2008 0F29                   i1l1410 0362  
                 i1l1500 042A                   i1l1420 0375                   i1l1412 0367  
                 i1l1404 0DC5                   i1l1510 0449                   i1l1502 042B  
                 i1l1430 038D                   i1l1422 037A                   i1l1414 036B  
                 i1l1406 0DD9                   i1l1600 05B4                   u200_20 0589  
                 i1l1520 0471                   i1l1504 0434                   i1l1440 039F  
                 i1l1432 0390                   i1l1424 0382                   i1l1416 036F  
                 i1l1360 0D0C                   i1l1408 0DDE                   u200_21 0588  
                 i1l1602 05B8                   i1l1530 0488                   i1l1522 0478  
                 i1l1514 0452                   i1l1506 0438                   i1l1450 03B3  
                 i1l1442 03A0                   i1l1434 0396                   i1l1426 0383  
                 i1l1418 0370                   i1l1610 05C7                   i1l1370 0D2D  
                 i1l1362 0D0E                   i1l1540 04EC                   i1l1524 047A  
                 i1l1516 0469                   i1l1508 0444                   i1l1532 048D  
                 i1l1460 03CD                   i1l1444 03A5                   i1l1452 03B5  
                 i1l1436 0397                   i1l1428 0385                   i1l1700 06DC  
                 i1l1620 05DB                   i1l1612 05C8                   i1l1604 05BA  
                 i1l1364 0D15                   i1l1380 0D76                   i1l1550 051F  
                 i1l1534 04A3                   i1l1542 04FB                   i1l1526 047E  
                 i1l1518 046D                   i1l1470 03D7                   i1l1462 03CF  
                 i1l1454 03C3                   i1l1446 03AA                   i1l1438 039B  
                 i1l1710 06FF                   i1l1702 06E2                   i1l1630 05F2  
                 i1l1614 05CD                   i1l1622 05DD                   i1l1606 05BF  
                 i1l1366 0D19                   i1l1390 0DA0                   i1l1382 0D8D  
                 i1l1374 0D5E                   u201_20 0592                   i1l1560 0536  
                 i1l1552 0528                   i1l1544 0511                   i1l1536 04E1  
                 i1l1528 047F                   i1l1480 03E1                   i1l1472 03D9  
                 i1l1464 03D1                   i1l1456 03C7                   i1l1448 03B2  
                 i1l1720 071E                   i1l1704 06E6                   i1l1640 0606  
                 i1l1632 05F3                   i1l1624 05E5                   i1l1616 05D2  
                 i1l1608 05C3                   i1l1368 0D28                   i1l1800 0100  
                 i1l1384 0D90                   i1l1376 0D6B                   u201_21 0591  
                 i1l1570 0546                   i1l1562 053B                   i1l1554 052C  
                 i1l1546 0516                   i1l1538 04E7                   i1l1490 03EA  
                 i1l1482 03E3                   i1l1474 03DB                   i1l1466 03D3  
                 i1l1458 03CB                   i1l1730 0767                   i1l1722 0737  
                 i1l1714 0707                   i1l1706 06E7                   i1l1634 05F8  
                 i1l1642 0608                   i1l1626 05EA                   i1l1618 05DA  
                 i1l1810 016C                   i1l1802 011C                   i1l1386 0D98  
                 i1l1580 0567                   i1l1572 054C                   i1l1556 0531  
                 i1l1564 053D                   i1l1492 0401                   i1l1484 03E5  
                 i1l1476 03DD                   i1l1468 03D5                   i1l1740 077E  
                 i1l1732 076B                   i1l1716 070C                   i1l1724 073D  
                 i1l1708 06EB                   i1l1660 0651                   i1l1644 0618  
                 i1l1652 0631                   i1l1636 05FD                   i1l1628 05EE  
                 i1l1820 01F6                   i1l1812 017A                   i1l1804 0138  
                 i1l1396 0DA8                   i1l1388 0D9C                   i1l1900 0F7E  
                 i1l1590 059F                   i1l1582 056B                   i1l1558 0534  
                 i1l1566 0541                   i1l1494 041D                   i1l1486 03E7  
                 i1l1478 03DF                   i1l1734 0773                   i1l1726 074A  
                 i1l1718 071A                   i1l1670 0670                   i1l1662 0659  
                 i1l1654 0636                   i1l1646 0624                   i1l1638 0605  
                 i1l1830 0286                   i1l1822 0204                   i1l1814 0197  
                 i1l1806 0141                   i1l1750 0026                   i1l1398 0DBE  
                 i1l1910 0FB4                   i1l1902 0F8B                   i1l1592 05A4  
                 u202_20 0597                   i1l1584 0589                   i1l1576 0554  
                 i1l1568 0542                   i1l1496 0424                   i1l1488 03E9  
                 i1l1736 0778                   i1l1728 0758                   i1l1680 06A2  
                 i1l1672 0682                   i1l1664 0661                   i1l1648 0628  
                 u210_20 05F8                   i1l1840 02AB                   i1l1832 0294  
                 i1l1824 022F                   i1l1816 01AE                   i1l1808 014F  
                 i1l1760 003D                   i1l1752 002A                   i1l1920 0FED  
                 i1l1912 0FBF                   i1l1904 0F92                   u202_21 0596  
                 u210_21 05F7                   i1l1594 05A5                   i1l1586 0592  
                 i1l1578 0559                   i1l1498 0426                   i1l1738 077C  
                 i1l1690 06C3                   i1l1682 06A3                   i1l1674 0686  
                 i1l1666 0669                   i1l1658 063F                   i1l1850 02CE  
                 i1l1834 029D                   i1l1842 02B1                   i1l1826 0255  
                 i1l1818 01CB                   i1l1770 0054                   i1l1762 003F  
                 i1l1754 002B                   i1l1746 001D                   i1l1922 0FF2  
                 i1l1914 0FC3                   i1l1906 0F96                   i1l1930 0DEF  
                 i1l1596 05A9                   i1l1588 0597                   i1l1692 06C5  
                 i1l1684 06B1                   i1l1676 0687                   i1l1668 066B  
                 i1l1860 02ED                   i1l1844 02B5                   i1l1836 02A1  
                 i1l1828 027D                   i1l1780 0069                   i1l1772 0055  
                 i1l1764 0047                   i1l1756 0030                   i1l1748 0022  
                 i1l1924 0FF6                   i1l1916 0FCD                   i1l1908 0FA4  
                 i1l1598 05AB                   i1l1694 06CE                   i1l1678 0690  
                 i1l1686 06B5                   i1l1870 0333                   i1l1862 0306  
                 i1l1854 02D6                   i1l1846 02B6                   i1l1838 02A2  
                 i1l1790 0084                   i1l1782 0071                   i1l1774 005A  
                 i1l1766 004C                   i1l1758 0035                   i1l1926 0FF7  
                 i1l1918 0FD7                   u203_20 05A4                   i1l1696 06D2  
                 i1l1688 06BB                   u211_20 05FD                   i1l1880 0350  
                 i1l1872 033D                   i1l1856 02DB                   i1l1864 030C  
                 i1l1848 02BA                   i1l1792 0092                   i1l1784 0076  
                 i1l1776 005F                   i1l1768 0050                   u203_21 05A3  
                 u211_21 05FC                   i1l1698 06D3                   i1l1882 0359  
                 i1l1874 033F                   i1l1866 0319                   i1l1858 02E9  
                 i1l1794 009F                   i1l1786 007B                   i1l1778 0067  
                 i1l1890 0F52                   i1l1876 034B                   i1l1868 0324  
                 i1l1796 00BA                   i1l1892 0F62                   i1l1878 034F  
                 i1l1798 00D6                   i1l1894 0F72                   i1l1886 0F49  
                 i1l1990 0E9A                   u204_20 05A9                   u220_20 06BB  
                 u212_20 0618                   i1l1888 0F4E                   i1l1992 0EA0  
                 u204_21 05A8                   u220_21 06BA                   u212_21 0617  
                 i1l1898 0F7B                   i1l1994 0EAB                   i1l1996 0EC4  
                 i1l1998 0ED2                   u205_20 05B8                   u221_20 06C3  
                 u213_20 0636                   u205_21 05B7                   u221_21 06C2  
                 u213_21 0635                   u230_20 071E                   u214_20 0670  
                 u206_20 05C7                   u150_20 0D6B                   u230_21 071D  
                 u214_21 066F                   u206_21 05C6                   u150_21 0D6A  
                 u222_25 06C7                   u231_20 072D                   u223_20 06D2  
                 u207_20 05CD                   u151_20 0D86                   u223_21 06D1  
                 u207_21 05CC                   u231_25 0728                   u215_25 0672  
                 u151_25 0D81                   u160_20 036F                   u232_20 074A  
                 u208_20 05D2                   u240_20 005F                   u152_20 0DA0  
                 u160_21 036E                   u232_21 0749                   u208_21 05D1  
                 u240_21 005E                   u152_21 0D9F                   u232_25 0746  
                 u224_25 06D5                   u216_25 067B                   u161_20 0375  
                 u233_20 0767                   u225_20 06E6                   u217_20 0686  
                 u209_20 05F2                   u241_20 0076                   u153_20 0DA7  
                 u161_21 0374                   u233_21 0766                   u225_21 06E5  
                 u217_21 0685                   u209_21 05F1                   u241_21 0075  
                 u153_21 0DA6                   u233_25 0763                   u170_20 040C  
                 u162_20 037A                   u234_20 077C                   u226_20 06EB  
                 u242_20 007B                   u170_21 040A                   u162_21 0379  
                 u234_21 077B                   u226_21 06EA                   u242_21 007A  
                 u218_25 0689                   u250_25 0199                   u154_25 0DA9  
                 u171_20 040D                   u163_20 0396                   u227_20 06FF  
                 u219_20 06A2                   u147_20 0D19                   u235_20 002A  
                 u155_20 0DBD                   u163_21 0395                   u227_21 06FE  
                 u219_21 06A1                   u147_21 0D18                   u251_21 01BD  
                 u243_21 00C8                   u235_21 0029                   u155_21 0DBC  
                 u251_22 01C4                   u243_22 00CF                   u251_23 01CB  
                 u243_23 00D6                   u219_25 069E                   u180_20 0471  
                 u172_20 041D                   u164_20 039F                   u228_20 0706  
                 u260_20 02A1                   u236_20 0030                   u156_20 0DC4  
                 u180_21 0470                   u172_21 041C                   u164_21 039E  
                 u228_21 0705                   u260_21 02A0                   u252_21 01E8  
                 u244_21 00E4                   u236_21 002F                   u156_21 0DC3  
                 u252_22 01EF                   u244_22 00EB                   u252_23 01F6  
                 u244_23 00F2                   u148_25 0D20                   u181_20 047E  
                 u173_20 042A                   u165_20 03A5                   u229_20 070C  
                 u149_20 0D2D                   u237_20 0035                   u181_21 047D  
                 u173_21 0429                   u165_21 03A4                   u229_21 070B  
                 u149_21 0D2C                   u253_21 0213                   u245_21 010E  
                 u237_21 0034                   u253_22 021A                   u245_22 0115  
                 u253_23 0221                   u245_23 011C                   u261_25 02A4  
                 u157_25 0DC9                   u190_20 052C                   u166_20 03AA  
                 u270_20 0333                   u262_20 02B5                   u254_20 023B  
                 u238_20 0054                   u158_20 0DD9                   u190_21 052B  
                 u166_21 03A9                   u270_21 0332                   u262_21 02B4  
                 u246_21 012A                   u238_21 0053                   u158_21 0DD8  
                 u246_22 0131                   u246_23 0138                   u182_25 0481  
                 u174_25 042D                   u270_25 032F                   u254_25 0236  
                 u191_20 0531                   u183_20 04A3                   u175_20 0440  
                 u167_20 03C3                   u271_20 034F                   u263_20 02BA  
                 u239_20 005A                   u159_20 0DDE                   u191_21 0530  
                 u183_21 04A2                   u175_21 043F                   u167_21 03C2  
                 u271_21 034E                   u263_21 02B9                   u255_21 0247  
                 u239_21 0059                   u159_21 0DDD                   u255_22 024E  
                 u183_23 049F                   u255_23 0255                   u247_25 013A  
                 u192_20 053B                   u176_20 0444                   u168_20 03C7  
                 u264_20 02CE                   u256_20 0263                   u280_20 0FC3  
                 u272_20 0F4E                   u192_21 053A                   u184_21 04BA  
                 u176_21 0443                   u168_21 03C6                   u264_21 02CD  
                 u248_21 015E                   u280_21 0FC2                   u272_21 0F4D  
                 u184_22 04BB                   u248_22 0165                   u184_23 04C0  
                 u248_23 016C                   u184_24 04C1                   u184_25 04C6  
                 u256_25 025E                   u184_26 04C7                   u193_20 0541  
                 u185_20 04CE                   u177_20 0449                   u169_20 0401  
                 u265_20 02D5                   u281_20 0FC9                   u273_20 0F52  
                 u193_21 0540                   u185_21 04CF                   u177_21 0448  
                 u169_21 0400                   u265_21 02D4                   u257_21 026F  
                 u249_21 0189                   u281_21 0FC8                   u273_21 0F51  
                 u185_22 04D4                   u257_22 0276                   u249_22 0190  
                 u185_23 04D5                   u257_23 027D                   u249_23 0197  
                 u169_25 03FD                   u194_20 0546                   u186_20 04EC  
                 u266_20 02DB                   u282_20 0FCD                   u274_20 0F72  
                 u194_21 0545                   u186_21 04EB                   u178_21 045B  
                 u266_21 02DA                   u282_21 0FCC                   u274_21 0F71  
                 u178_22 0462                   u178_23 0469                   u258_25 027F  
                 u195_20 054C                   u187_20 0511                   u179_20 046D  
                 u267_20 02ED                   u283_20 0FE2                   u195_21 054B  
                 u187_21 0510                   u179_21 046C                   u267_21 02EC  
                 u259_25 0296                   u283_25 0FDD                   u275_25 0F83  
                 u196_20 0553                   u188_20 0516                   u268_20 02FC  
                 u284_20 0FF2                   u276_20 0F91                   u196_21 0552  
                 u188_21 0515                   u284_21 0FF1                   u276_21 0F90  
                 u268_25 02F7                   u197_20 0559                   u269_20 0319  
                 u285_20 0FF6                   u197_21 0558                   u269_21 0318  
                 u285_21 0FF5                   u189_25 0521                   u269_25 0315  
                 u277_25 0FA5                   u198_20 056B                   u278_20 0FB3  
                 u198_21 056A                   u278_21 0FB2                   u199_20 057A  
                 u287_20 0EA0                   u287_21 0E9F                   u199_25 0575  
                 u279_25 0FB8                   u288_20 0EAB                   u288_21 0EAA  
                 u289_20 0EF1                   u289_21 0EF0         __end_of___xxtofl 1000  
              ??___fladd 005C                ??___fldiv 0028                ??___flmul 0042  
              ??___fltol 006C         __end_of_setupADC 07F9         __end_of_setupPWM 0D5E  
                 saved_w 007E             ___xxtofl@arg 007A             ___xxtofl@exp 0079  
           ___xxtofl@val 0070  __end_of__initialization 0019               ___fltol@f1 0068  
         __pcstackCOMMON 0070            __end_of_setup 0D0B                  ??_setup 00AE  
             __pbssBANK1 00B1        __end_of__Umul8_16 0D32               __pmaintext 078D  
             __pintentry 0004                  _CCP1CON 0017                  _CCP2CON 001D  
              ?___xxtofl 0070                ?_setupADC 0070                ?_setupPWM 0070  
                ___fladd 0362                  ___fldiv 05BA                  ___flmul 001D  
                ___fltol 0D5E                _ANSELbits 0188                  __ptext1 0D32  
                __ptext2 07DC                  __ptext3 0CEE                  __ptext4 0E9A  
                __ptext5 0DEC                  __ptext6 0F48                  __ptext7 0D5E  
                __ptext8 001D                  __ptext9 0D0B                _T2CONbits 0012  
             ??___xxtofl 0074     end_of_initialization 0019               map@OUT_MAX 00A6  
             map@OUT_MIN 00A4               ??_setupADC 00AE               ??_setupPWM 00AE  
            ___fladd@grs 0067            ___xxtofl@sign 0078                _TRISCbits 0087  
            ___fldiv@grs 0034              ___fldiv@rem 002D              ___flmul@grs 0048  
            _CCP1CONbits 0017              _CCP2CONbits 001D      start_initialization 0013  
            __end_of_map 0E9A              __end_of_isr 0F48                __Umul8_16 0D0B  
              ___fladd@a 0058                ___fladd@b 0054                ___fldiv@a 0020  
              ___fldiv@b 0024                ___flmul@a 003E                ___flmul@b 003A  
              ___latbits 0002            __pcstackBANK0 0020            __pcstackBANK1 00A0  
               ?___fladd 0054                 ?___fldiv 0020                 ?___flmul 003A  
               ?___fltol 0068               ?__Umul8_16 0070                 _CCPR1VAR 00B3  
               _CCPR2VAR 00B1        interrupt_function 0004                map@IN_MAX 00A3  
              map@IN_MIN 00A2                 _PIE1bits 008C                 _PIR1bits 000C  
             _ADCON0bits 001F               _ADCON1bits 009F              ??__Umul8_16 0072  
               ___xxtofl 0F48                 __ptext10 05BA                 __ptext11 0362  
               map@INPUT 00A8                 _setupADC 07DC                 _setupPWM 0D32  
             _INTCONbits 000B                 intlevel1 0000               _OSCCONbits 008F  
 __Umul8_16@multiplicand 0070            ___fladd@signs 0064             ___fladd@aexp 0065  
           ___fladd@bexp 0066     __Umul8_16@multiplier 0078        __Umul8_16@product 0074  
